(dp1
S'nombre'
p2
(dp3
S'length'
p4
I512
sS'unique'
p5
I00
sS'sortable'
p6
I2
sS'sql'
p7
S'CHAR(512)'
p8
sS'notnull'
p9
I00
sS'type'
p10
S'string'
p11
ssS'id'
p12
(dp13
g4
I512
sg5
I00
sg6
I1
sg7
S'INTEGER PRIMARY KEY AUTOINCREMENT'
p14
sg9
I00
sg10
S'id'
p15
ssS'id_modelo'
p16
(dp17
S'sortable'
p18
L2L
sS'sql'
p19
S'INTEGER REFERENCES modelo (id) ON DELETE CASCADE'
p20
sS'length'
p21
L512L
sS'notnull'
p22
L0L
sS'unique'
p23
L0L
sS'type'
p24
S'reference modelo'
p25
ss.