(dp1
S'output'
p2
S"<type 'exceptions.AttributeError'> 'DAL' object has no attribute 'infra'"
p3
sS'layer'
p4
S'D:\\Work\\web2py_src\\web2py\\applications\\LubemanEX\\controllers/sys.py'
p5
sS'code'
p6
S'import datetime\n\n@auth.requires_login()\ndef company():\n\tregistros = db(db.cliente).select()\n\treturn locals()\n\ndef project():\n\tregistros=db(db.proyecto).select(join=db.cliente.on(db.cliente.id==db.proyecto.id_cliente),orderby=~db.proyecto.id)\n\treturn locals()\n\ndef equipment():\n\tif request.args(0):\n\t\tsession.proyecto=request.args(0)\n\t\t#registros=db(db.equipo.id_proyecto==session.proyecto).select(join=db.proyecto.on(db.proyecto.id==db.equipo.id_proyecto),orderby=db.equipo.id)\n\t\trows= db((db.equipo.id_proyecto==session.proyecto)&(db.equipo.id_marca==db.marca.id)&(db.proyecto.id==db.equipo.id_proyecto)).select()\n\telse:\n\t\trows= db((db.equipo.id_marca==db.marca.id)&(db.proyecto.id==db.equipo.id_proyecto)).select()\n\t\t#registros=db(db.equipo).select(join=db.proyecto.on(db.proyecto.id==db.equipo.id_proyecto),orderby=db.equipo.id)\n\treturn locals()\n\ndef component():\n\tif request.args(0):\n\t\tsession.equipo=request.args(0)\n\t\t#registros=db(db.componente.id_equipo==request.args(0)).select()\n\t\trows= db((db.componente.id_equipo==session.equipo)&(db.componente.id_marca==db.marca.id)&(db.componente.id_equipo==db.equipo.id)&(db.item.id==db.componente.id_item)).select()\n\telse:\n\t\t#registros=db(db.componente).select()\n\t\trows= db((db.componente.id_marca==db.marca.id)&(db.componente.id_item==db.item.id)&(db.componente.id_equipo==db.equipo.id)).select()\n\treturn locals()\n\ndef analysis():\n\tsession.componente=request.args(0)\n\tregistros = db(db.reporte.id_componente==session.componente).select() \n\treturn locals()\t\n\ndef companyCRUD():\n    if len(request.args)==1:\n        registro = db.cliente(request.args(0)) or redirect(URL(\'index\'))       \n    else:\n        registro = None   \n        #form = SQLFORM(db.pregunta, request.args[0], deletable=False, upload=URL(\'download\'))\n    form = SQLFORM(db.cliente, registro, deletable=True, showid=False, upload=URL(\'download\'), submit_button=T("Save"))\n       \n    if form.process(session=None, formname=\'cliente\').accepted:\n        response.flash = \'Ok\'\n        redirect(URL(\'sys\',\'company\'))\n    elif form.errors:\n        response.flash = \'Error\'\n    return locals()\t\n\ndef projectCRUD():\n    if len(request.args)==1:\n        registro = db.proyecto(request.args(0)) or redirect(URL(\'index\'))       \n    else:\n        registro = None   \n        #form = SQLFORM(db.pregunta, request.args[0], deletable=False, upload=URL(\'download\'))\n    form = SQLFORM(db.proyecto, registro, deletable=True, showid=False, upload=URL(\'download\'), submit_button=T("Save"))\n       \n    if form.process(session=None, formname=\'proyecto\').accepted:\n        response.flash = \'Ok\'\n        redirect(URL(\'sys\',\'project\'))\n    elif form.errors:\n        response.flash = \'Error\'\n    return locals()\n\ndef analysisCRUD():\n\n\tif len(request.args)==1:\n\t\trecord=db(db.reporte.id==request.args(0)).select().first()\n\t\ti1=record.id_mantenimiento\n\t\ti2=record.id_condicion_aceite\n\t\ti3=record.id_muestra\n\t\ti4=record.id_contaminacion\n\t\ti5=record.id_info_equipo\n\t\ti6=record.id_quimico\n\t\tsession.report=request.args(0)\n\telse:\n\t\tredirect(URL(\'sys\',\'company\'))\n\n\t\'\'\'\n\tFormularios para agregar\n\t\'\'\'\n\n\n\tform_aceite = SQLFORM(db.aceite, None, upload=URL(\'download\'), submit_button=T("Save"))\n\tif form_aceite.process(session=None, formname=\'aceite\').accepted:\n\t\tresponse.flash = \'Ok\'\n\t\t#Valor insertado es form_aceite.vars.id\n\t\tdb(db.mantenimiento.id==i1).update(id_aceite=form_aceite.vars.id)\n\t\tredirect(URL(\'sys\',\'analysisCRUD\',args=[session.report]))\n\telif form_aceite.errors:\n\t\tresponse.flash = \'Error\'\n\n\tform_tipo_mantenimiento = SQLFORM(db.tipo_mantenimiento, None, upload=URL(\'download\'), submit_button=T("Save"))\n\tif form_tipo_mantenimiento.process(session=None, formname=\'tipo_mantenimiento\').accepted:\n\t\tresponse.flash = \'Ok\'\n\t\t#Valor insertado es form_tipo_mantenimiento.vars.id\n\t\tdb(db.mantenimiento.id==i1).update(id_tipo_mantenimiento=form_tipo_mantenimiento.vars.id)\n\t\tredirect(URL(\'sys\',\'analysisCRUD\',args=[session.report]))\n\telif form_tipo_mantenimiento.errors:\n\t\tresponse.flash = \'Error\'\n\n\t\'\'\'\n\tform_equipo = SQLFORM(db.equipo, None, upload=URL(\'download\'))\n\tif form_equipo.process(session=None, formname=\'equipo\').accepted:\n\t\tresponse.flash = \'Ok\'\n\t\t#Valor insertado es form_equipo.vars.id\n\t\tdb(db.info_equipo.id==i5).update(id_equipo=form_equipo.vars.id)\n\t\tredirect(URL(\'sys\',\'analysisCRUD\',args=[session.report]))\n\telif form_equipo.errors:\n\t\tresponse.flash = \'Error\'\n\n\tform_componente = SQLFORM(db.componente, None, upload=URL(\'download\'))\n\tif form_componente.process(session=None, formname=\'componente\').accepted:\n\t\tresponse.flash = \'Ok\'\n\t\t#Valor insertado es form_componente.vars.id\n\t\tdb(db.info_equipo.id==i5).update(id_componente=form_componente.vars.id)\n\t\tredirect(URL(\'sys\',\'analysisCRUD\',args=[session.report]))\n\telif form_componente.errors:\n\t\tresponse.flash = \'Error\'\n\n\t\'\'\'\n\n\t\'\'\'\n\tFormularios para editar\n\t\'\'\'\n\tregistro = db.mantenimiento(i1) or redirect(URL(\'index\'))\n\tform1 = SQLFORM(db.mantenimiento, registro, showid=False, upload=URL(\'download\'), submit_button=T("Save"))       \n\tif form1.process(session=None, formname=\'mantenimiento\').accepted:\n\t\tresponse.flash = \'Ok\'\n\t\tredirect(URL(\'sys\',\'analysisCRUD\',args=[session.report]))\n\telif form1.errors:\n\t\tresponse.flash = \'Error\'\n\n\tregistro = db.condicion_aceite(i2) or redirect(URL(\'index\'))\n\tform2 = SQLFORM(db.condicion_aceite, registro, showid=True, upload=URL(\'download\'), submit_button=T("Save"))       \n\tif form2.process(session=None, formname=\'condicion_aceite\').accepted:\n\t\tresponse.flash = \'Ok\'\n\t\tredirect(URL(\'sys\',\'analysisCRUD\',args=[session.report]))\n\telif form2.errors:\n\t\tresponse.flash = \'Error\'\n\n\tregistro = db.muestra(i3) or redirect(URL(\'index\'))\n\tform3 = SQLFORM(db.muestra, registro, showid=False, upload=URL(\'download\'), submit_button=T("Save"))       \n\tif form3.process(session=None, formname=\'muestra\').accepted:\n\t\tresponse.flash = \'Ok\'\n\t\tredirect(URL(\'sys\',\'analysisCRUD\',args=[session.report]))\n\telif form3.errors:\n\t\tresponse.flash = \'Error\'\n\n\tregistro = db.contaminacion(i4) or redirect(URL(\'index\'))\n\tform4 = SQLFORM(db.contaminacion, registro, showid=True, upload=URL(\'download\'), submit_button=T("Save"))       \n\tif form4.process(session=None, formname=\'contaminacion\').accepted:\n\t\tresponse.flash = \'Ok\'\n\t\tredirect(URL(\'sys\',\'analysisCRUD\',args=[session.report]))\n\telif form4.errors:\n\t\tresponse.flash = \'Error\'\n\n\tregistro = db.info_equipo(i5) or redirect(URL(\'index\'))\n\tform5 = SQLFORM(db.info_equipo, registro, showid=False, upload=URL(\'download\'), submit_button=T("Save"))       \n\tif form5.process(session=None, formname=\'info_equipo\').accepted:\n\t\tresponse.flash = \'Ok\'\n\t\tredirect(URL(\'sys\',\'analysisCRUD\',args=[session.report]))\n\telif form5.errors:\n\t\tresponse.flash = \'Error\'\n\n\tregistro = db.quimico(i6) or redirect(URL(\'index\'))\n\tform6 = SQLFORM(db.quimico, registro, showid=True, upload=URL(\'download\'), submit_button=T("Save"))       \n\tif form6.process(session=None, formname=\'quimico\').accepted:\n\t\tresponse.flash = \'Ok\'\n\t\tredirect(URL(\'sys\',\'analysisCRUD\',args=[session.report]))\n\telif form6.errors:\n\t\tresponse.flash = \'Error\'\n\n\treturn locals()\t\n\ndef equipmentCRUD():\n\tif len(request.args)==1:\n\t\tregistro = db.equipo(request.args(0)) or redirect(URL(\'index\'))       \n\telse:\n\t\tregistro = None   \n        #form = SQLFORM(db.pregunta, request.args[0], deletable=False, upload=URL(\'download\'))\n\tform = SQLFORM(db.equipo, registro, deletable=True, showid=False, upload=URL(\'download\'), submit_button=T("Save"))\n       \n\tif form.process(session=None, formname=\'equipo\').accepted:\n\t\tresponse.flash = \'Ok\'\n\t\tredirect(URL(\'sys\',\'equipment\',args=[session.proyecto]))\n\telif form.errors:\n\t\tresponse.flash = \'Error\'\n\treturn locals()\n\ndef componentCRUD():\n\tif len(request.args)==1:\n\t\tregistro = db.componente(request.args(0)) or redirect(URL(\'index\'))       \n\telse:\n\t\tregistro = None   \n        #form = SQLFORM(db.pregunta, request.args[0], deletable=False, upload=URL(\'download\'))\n\tform = SQLFORM(db.componente, registro, deletable=True, showid=False, upload=URL(\'download\'), submit_button=T("Save"))\n       \n\tif form.process(session=None, formname=\'componente\').accepted:\n\t\tresponse.flash = \'Ok\'\n\t\tredirect(URL(\'sys\',\'component\',args=[session.equipo]))\n\telif form.errors:\n\t\tresponse.flash = \'Error\'\n\treturn locals()\n\ndef insertReport():\n\ti1=db.mantenimiento.insert(id_tipo_mantenimiento=1, id_aceite=1, lugar_trabajo=\'\', comentario=\'\', ruta_firma=\'\', estado=0)\n\ti2=db.condicion_aceite.insert(viscocidad=0, oxidacion=0, soot=0, sulfatacion=0, nitracion=0)\n\ti3=db.muestra.insert(fecha_toma=datetime.datetime.today(), fecha_recepcion=datetime.datetime.today(), fecha_reporte=datetime.datetime.today(), cantidad_aceite=0, unidades_aceite=\'\', cantidad_componente=0, unidades_componente=\'\')\n\ti4=db.contaminacion.insert(porc_agua=0, porc_dilucion=0, cod_iso=\'\')\n\ti5=db.info_equipo.insert(id_equipo=session.equipo, id_componente=session.componente, serie_equipo=\'\', serie_componente=\'\', numero_equipo=\'\', ot_cliente=\'\', ot_lubeman=\'\', uso_equipo=0, unidades_uso=\'\')\n\ti6=db.quimico.insert(Fe=0,Al=0,Cu=0,Cr=0,Pb=0,Sn=0,Si=0,Na=0,Kk=0,Ca=0,Mg=0,Pp=0,Zn=0)\n\n\tsession.reporte=db.reporte.insert(id_proyecto=session.proyecto, id_componente=session.componente, id_info_equipo=i5, id_contaminacion=i4, id_muestra=i3, id_condicion_aceite=i2, id_mantenimiento=i1, id_quimico=i6, fecha=datetime.datetime.today())\n\treturn True\n\ndef newAnalysis():\n\t#insertar valores por defecto, luego se editan.\n\tinsertReport()\n\tredirect(URL(\'sys\',\'analysisCRUD\',args=[session.reporte]))\n\ndef newBulkAnalysis():\n\tvar_idequipo=request.args(0)\n\tvar_proyecto=request.args(1)\n\ttry:\n\t\trecords=db(db.componente.id_equipo==var_idequipo).select()\n\t\tfor record in records:\n\t\t\tsession.equipo=var_idequipo\n\t\t\tsession.proyecto=var_proyecto\n\t\t\tsession.componente=record.id\n\t\t\tinsertReport()\n\t\tredirect(URL(\'sys\',\'equipment\',args=[session.proyecto]))\t\t\n\texcept Exception, e:\n\t\tredirect(URL(\'sys\',\'equipment\',args=[session.proyecto]))\n\ndef data():\n\tif request.args(0)==None:\t\n\t\tpass\n\telif request.args(0)==\'form1\':\n\t\tregistro = db.quimico(request.args(1)) or redirect(URL(\'data\'))\n\t\tform = SQLFORM(db.quimico, registro, showid=True, upload=URL(\'download\'), submit_button=T("Save"))       \n\t\tif form.process(session=None, formname=\'quimico\').accepted:\n\t\t\tresponse.flash = \'Ok\'\n\t\t\tredirect(URL(\'sys\',\'data\'))\n\t\telif form.errors:\n\t\t\tresponse.flash = \'Error\'\t\n\telif request.args(0)==\'form2\':\n\t\tregistro = db.contaminacion(request.args(1)) or redirect(URL(\'data\'))\n\t\tform = SQLFORM(db.contaminacion, registro, showid=True, fields=[\'porc_agua\',\'porc_dilucion\'], upload=URL(\'download\'), submit_button=T("Save"))       \n\t\tif form.process(session=None, formname=\'contaminacion\').accepted:\n\t\t\tresponse.flash = \'Ok\'\n\t\t\tredirect(URL(\'sys\',\'data\'))\n\t\telif form.errors:\n\t\t\tresponse.flash = \'Error\'\n\telif request.args(0)==\'form3\':\n\t\tregistro = db.condicion_aceite(request.args(1)) or redirect(URL(\'data\'))\n\t\tform = SQLFORM(db.condicion_aceite, registro, showid=True, fields=[\'oxidacion\',\'soot\',\'sulfatacion\',\'nitracion\'], upload=URL(\'download\'), submit_button=T("Save"))       \n\t\tif form.process(session=None, formname=\'condicion_aceite\').accepted:\n\t\t\tresponse.flash = \'Ok\'\n\t\t\tredirect(URL(\'sys\',\'data\'))\n\t\telif form.errors:\n\t\t\tresponse.flash = \'Error\'\n\telif request.args(0)==\'form4\':\n\t\tregistro = db.contaminacion(request.args(1)) or redirect(URL(\'data\'))\n\t\tform = SQLFORM(db.contaminacion, registro, showid=True, fields=[\'cod_iso\'], upload=URL(\'download\'), submit_button=T("Save"))       \n\t\tif form.process(session=None, formname=\'contaminacion\').accepted:\n\t\t\tresponse.flash = \'Ok\'\n\t\t\tredirect(URL(\'sys\',\'data\'))\n\t\telif form.errors:\n\t\t\tresponse.flash = \'Error\'\n\telif request.args(0)==\'form5\':\n\t\tregistro = db.condicion_aceite(request.args(1)) or redirect(URL(\'data\'))\n\t\tform = SQLFORM(db.condicion_aceite, registro, showid=True, fields=[\'viscocidad\'], upload=URL(\'download\'), submit_button=T("Save"))       \n\t\tif form.process(session=None, formname=\'condicion_aceite\').accepted:\n\t\t\tresponse.flash = \'Ok\'\n\t\t\tredirect(URL(\'sys\',\'data\'))\n\t\telif form.errors:\n\t\t\tresponse.flash = \'Error\'\n\treturn locals()\n\ndef confirmation_pdf():\n\n    # Let\'s import the wrapper\n    import pdf\n    from pdf.theme import colors, DefaultTheme\n    from reportlab.lib.styles import ParagraphStyle, PropertySet\n    from reportlab.lib.enums import TA_LEFT, TA_RIGHT, TA_CENTER, TA_JUSTIFY\n    from reportlab.platypus import Paragraph\n    # and define a constant\n    TABLE_WIDTH = 250 # this you cannot do in rLab which is why I wrote the helper initially\n\n    # then let\'s extend the Default theme. I need more space so I redefine the margins\n    # also I don\'t want tables, etc to break across pages (allowSplitting = False)\n    # see http://www.reportlab.com/docs/reportlab-userguide.pdf\n    class MyTheme(DefaultTheme):\n        from reportlab.lib.units import inch\n        doc = {\n            #\'pagesize\': (11.69*inch,8.26*inch),\n            \'pagesize\': (8*inch,8.26*inch),\n            \'leftMargin\': 25,\n            \'rightMargin\': 25,\n            \'topMargin\': 10,\n            \'bottomMargin\': 25,\n            \'allowSplitting\': False,\n            }\n    class ParagraphStyle(PropertySet):\n        defaults = {\n        \'fontName\':\'Helvetica\',\n        \'fontSize\':10,\n        \'leading\':6,\n        \'leftIndent\':0,\n        \'rightIndent\':0,\n        \'firstLineIndent\':0,\n        \'alignment\':TA_LEFT,\n        \'spaceBefore\':0,\n        \'spaceAfter\':0,\n        \'bulletFontName\':\'Helvetica\',\n        \'bulletFontSize\':10,\n        \'bulletIndent\':0,\n        \'textColor\': \'black\',\n        \'backColor\':None,\n        \'wordWrap\':None,\n        \'borderWidth\': 0,\n        \'borderPadding\': 0,\n        \'borderColor\': None,\n        \'borderRadius\': None,\n        \'allowWidows\': 1,\n        \'allowOrphans\': 0,\n        \'textTransform\': None,\n        \'endDots\': None\n        }\n\n    p = ParagraphStyle(\'test\')\n    p.leading = 7\n    p.fontSize = 6\n    # let\'s create the doc and specify title and author\n    doc = pdf.Pdf(\'Reporte de Fluidos\', \'Lubeman\')\n\n    # now we apply our theme\n    doc.set_theme(MyTheme)\n    # time to add the logo at the top right\n    logo_path = request.folder + \'static/images/full.png\'\n    #doc.add_image(logo_path, 90, 100, pdf.LEFT)\n\n    # give me some space\n    #doc.add_spacer()\n    \n    # this header defaults to H1\n    doc.add_header(\'Reporte de An\xc3\xa1lisis de Fluidos\')\n\n    # here\'s how to add a paragraph\n    #doc.add_paragraph("Lubeman")\n \n    #doc.add_spacer()\n\n    # a subheader - H2\n    #doc.add_header("Texto", pdf.H2)\n\n    # as in pre-css days we wrap the address and the Google Map Image in a table\n    # my wrapper module just reexposes the reportlab Paragraph and Table classes. \n    # See __init__.py in the source section below \n\n    # let\'s get the map image\n    #gmap = pdf.Image("https://chart.googleapis.com/chart?chxt=x,y,r&chxr=0,0,500|1,0,200|2,1000,0&cht=lc&chd=s:cEAELFJHHHKUju9uuXUc&chco=76A4FB&chls=2.0&chs=200x125", 250,150)\n\n    # and add both the address and the map wrapped in a table to our doc\n    # UGLY inline stuff\n       \n    #doc.add_spacer()\n\n    #doc.add_header(\'Reporte\', pdf.H2)\n\n    \n   # let\'s move on to the divers table\n   # ie_table = [[\'Informaci\xc3\xb3n del Equipo\',\'\']] # this is the header row \n   # ie_table.append([\'N\xc3\xbamero de Equipo\', \'asd\']) # these are the other rows\n   # ie_table.append([\'Marca de Equipo\', \'asd\'])\n   # ie_table.append([\'Modelo de Equipo\', \'asd\'])\n   # ie_table.append([\'Serie de Equipo\', \'asd\'])\n   # ie_table.append([\'Horas/Km de Equipo\', \'asd\'])\n   # ie_table.append([\'Componente\', \'asd\'])\n   # ie_table.append([\'Marca de Componente\', \'asd\'])\n   # ie_table.append([\'Modelo de Componente\', \'asd\'])\n   # ie_table.append([\'N\xc2\xba serie de Componente\', \'asd\'])\n   # ie_table.append([\'O/T Cliente\', \'asd\'])\n   # ie_table.append([\'O/T Lubeman\', \'asd\'])\n    \n   # doc.add_table(ie_table, TABLE_WIDTH)\n   # doc.add_spacer()\n    \n   # im_table = [[\'Informaci\xc3\xb3n de Mantenimiento\',\'\']] # this is the header row \n   # im_table.append([\'Lugar de Trabajo\', \'asd\']) # these are the other rows\n   # im_table.append([\'Marca Aceite\', \'asd\'])\n   # im_table.append([\'Nombre Aceite\', \'asd\'])\n   # im_table.append([\'Visc en Etiqueta\', \'asd\'])\n   # im_table.append([\'PM\', \'asd\'])\n    \n   # doc.add_table(im_table, TABLE_WIDTH)\n    \n    i_table = [[\'Informaci\xc3\xb3n del Equipo\',\'\',\'\',\'Informaci\xc3\xb3n de Mantenimiento\',\'\']]\n    i_table.append([\'N\xc3\xbamero de Equipo\', \'asd\', \'    \',\'Lugar de Trabajo\' ,\' \']) # these are the other rows\n    i_table.append([\'Marca de Equipo\', \'asd\', \'    \', \'Marca Aceite\', \'asd\'])\n    i_table.append([\'Modelo de Equipo\', \'asd\', \'    \',\'Nombre Aceite\' , \'asd\'])\n    i_table.append([\'Serie de Equipo\', \'asd\', \'    \', \'Visc en Etiqueta\', \'asd\'])\n    i_table.append([\'Horas/Km de Equipo\', \'asd\', \'    \', \'\', \'asd\'])\n    i_table.append([\'Componente\', \'asd\', \'    \', \'PM\', \'asd\'])\n    i_table.append([\'Marca de Componente\', \'asd\', \'    \', \' \',\' \'])\n    i_table.append([\'Modelo de Componente\', \'asd\', \'    \', \' \',\' \'])\n    i_table.append([\'N\xc2\xba serie de Componente\', \'asd\', \'    \', \' \',\' \'])\n    i_table.append([\'O/T Cliente\', \'asd\', \'    \', \' \',\' \'])\n    i_table.append([\'O/T Lubeman\', \'asd\', \'    \', \' \',\' \'])\n    \n    #doc.add_table(i_table, 525)\n    img_left = Image(request.folder + \'static/images/left.jpg\', 115,82)\n    logo = Image(request.folder + \'static/images/logo.png\', 109,82)\n    #doc.add_image(logo_path, 90, 100, pdf.LEFT)\n    data1= [[img_left, \'Informaci\xc3\xb3n del Equipo\',\'\',\'\',\'Informaci\xc3\xb3n de Mantenimiento:\',\'\',logo],\n     [\'\',\'N\xc3\xbamero de Equipo:\', \'CA-02\', \'                                 \',\'Lugar de Trabajo:\' ,\'SAN SIMON EQUIPOS-MINA LA VIRGEN\',\'\'],\n     [\'\',\'Marca de Equipo:\', \'Caterpillar\', \'    \', \'Marca Aceite:\', \'Mobil\',\'\'],\n     [\'\',\'Modelo de Equipo:\', \'777F\', \'    \',\'Nombre Aceite:\' , \'HD\',\'\'],\n     [\'\',\'Serie de Equipo:\', \'JRP00408\', \'    \', \'Visc en Etiqueta:\', \'10W\',\'\'],\n     [\'\',\'Horas/Km de Equipo:\', \'asd\', \'    \', \'\', \'\',\'\'],\n     [\'\',\'Componente:\', \'SISTEMA HIDRAULICO\', \'    \', \'PM:\', \'\',\'\'],\n     [\'\',\'Marca de Componente:\', \'asd\', \'    \', \' \',\' \',\'\'],\n     [\'\',\'Modelo de Componente:\', \'asd\', \'    \', \' \',\' \',\'\'],\n     [\'\',\'N\xc2\xba serie de Componente:\', \'asd\', \'    \', \' \',\' \',\'\'],\n     [\'\',\'O/T Cliente:\', \'asd\', \'    \', \' \',\' \',\'\'],\n     [\'\',\'O/T Lubeman:\', \'TR09776\', \'    \', \' \',\' \',\'\']]\n    t1=Table(data1,style=[\n     (\'SIZE\',(0,0),(-1,-1),4),\n     (\'ALIGN\',(0,0),(-1,-1),\'LEFT\'),\n     (\'VALIGN\', (0,0), (-1,-1), \'MIDDLE\'),\n     (\'RIGHTPADDING\',(0,0),(-1,-1),2),\n     (\'LEFTPADDING\',(0,0),(-1,-1),2),\n     (\'TOPPADDING\',(0,0),(-1,-1),0),\n     (\'BOTTOMPADDING\',(0,0),(-1,-1),-5),\n     (\'GRID\',(0,0),(-1,-1),0.5,colors.grey),\n     (\'SPAN\',(0,0),(0,11)),\n     (\'SPAN\',(6,0),(6,11)),\n     ])\n\n    doc.add(t1)\n\n    \n    doc.add_spacer()\n    data= [[Paragraph(\'TENDENCIA DEL COBRE SIGUE EN INCREMENTO Y ES ELEVADO. NIQUEL ESTARIA LIG. ALTO. REVISAR TEMPERATURAS DE OPERACION. REVISAR PARAMETROS DE OPERACION.\\nREVISAR LOS BUJES DEL CONVERTIDOR DE TORQUE. REVISAR PRESIONES EN BOMBAS HIDRAULICAS. REVISAR FILTROS DE ACEITE. SE RECOMIENDA CAMBIAR ACEITE/FILTROS.\\nENVIAR SGTE MUESTRA A LAS 50 HORAS POSTERIOR AL CAMBIO.\',p), \'ESTADO:\'],\n     [\'\', \'PRECAUCI\xc3\x93N\']]\n    t=Table(data,style=[\n     (\'SIZE\',(0,0),(0,1),6.1),\n     (\'ALIGN\',(0,0),(-1,-1),\'LEFT\'),\n     (\'RIGHTPADDING\',(0,0),(-1,-1),2),\n     (\'LEFTPADDING\',(0,0),(-1,-1),2),\n     (\'BACKGROUND\',(1,1),(1,1),colors.yellow),\n     (\'SIZE\',(1,0),(-1,-1),11),\n     (\'FONT\',(1,0),(-1,-1),\'Helvetica-Bold\'),\n     (\'ALIGN\',(1,0),(-1,-1),\'CENTER\'),\n     (\'SPAN\',(0,0),(0,1)),\n     ])\n\n    doc.add(t)\n    doc.add_spacer()\n    \n    doc.add_header(\'Resultados\', pdf.H3)\n    \n    ir_table = [[\'Informaci\xc3\xb3n de la Muestra\',\'Elementos de Desgaste (partes por mill\xc3\xb3n)\',\'Contaminaci\xc3\xb3n\',\'Condici\xc3\xb3n del Aceite\']] # this is the header row \n    doc.add_table(ir_table, 550)\n\n    #data = db(db.tempo).select()\n    #    for r in db(db.tempo).select():\n    #    text += r.name_id + " " + r.kv + " " + r.fecha + " " + r.hora + " " + r.tecnico  + "\\n"\n    #aku_row = db(db.infra.name_sample==1001).select()\n    for r in db(db.infra.name_sample==1001).select():\n        textwater = r.water\n        textoxi = r.oxi\n        textsoot = r.sooth\n        textsulfa = r.sulfa\n        textnitra = r.nitra\n    \n    data= [[\'\',\'# Muestra\', \'Fechas\', \'02\', \'Horas/Km\\naceite\', \'Horas/Km\\ncomponente\',\n            \'Fe\', \'Al\', \'Cu\', \'Cr\', \'Pb\', \'Sn\', \'Si\', \'Na\', \'K\', \'Ca\', \'Mg\', \'P\', \'Zn\',\n            \'Agua %\', \'Diluci\xc3\xb3n %\', \'C\xc3\xb3d. ISO\', \'Visc. 100 \xc2\xbaC\',\n            \'Oxidaci\xc3\xb3n\', \'Soot\', \'Sulfataci\xc3\xb3n\', \'Nitraci\xc3\xb3n\'],\n     [\'10\', \'Toma\', \'Recepci\xc3\xb3n\', \'Reporte\', \'\', \'\'],\n     [\'7/30/2013\', \'20\', \'21\', \'22\', \'23\', \'24\', \'5.5\', \'0.6\', \'0.1\', \'11.4\', \'\', \'\', \'\', \'\', \'\', \'\', \'\', \'\', \'\',textwater, \'\', \'\', \'\',textoxi,textsoot,textsulfa,textnitra],\n     [\'7/15/2013\', \'30\', \'31\', \'32\', \'33\', \'34\'],\n     [\'7/15/2013\', \'40\', \'41\', \'42\', \'43\', \'44\'],\n     [\'Proyectado\', \'30\', \'31\', \'32\', \'\', \'\', \'6.3\', \'0.7\', \'1.5\', \'0.1\', \'13.1\']]\n    t=Table(data,style=[\n     (\'SIZE\',(0,0),(-1,-1),6.1),\n     (\'ALIGN\',(0,0),(-1,-1),\'CENTRE\'),\n     (\'RIGHTPADDING\',(0,0),(-1,-1),2),\n     (\'LEFTPADDING\',(0,0),(-1,-1),2),\n     (\'TOPPADDING\',(0,0),(-1,-1),0),\n     (\'BOTTOMPADDING\',(0,0),(-1,-1),-5),\n     (\'GRID\',(0,0),(-1,-1),0.5,colors.grey),\n     (\'BACKGROUND\',(0,0),(0,0),colors.palegreen),\n     (\'BACKGROUND\',(6,2),(18,4),colors.HexColor(\'#B8E68A\')),\n     (\'FONT\',(6,2),(-1,-1),\'Helvetica-Bold\'),\n     (\'BACKGROUND\',(9,2),(9,2),colors.yellow),\n     (\'SPAN\',(0,0),(0,1)),\n     (\'SPAN\',(1,0),(3,0)),\n     (\'SPAN\',(0,5),(3,5)),\n     ])\n\n    doc.add(t)\n\n    graph1 = Image("https://chart.googleapis.com/chart?chs=200x125&cht=lc&chco=0077CC&chxt=y&chd=t:27,25,60,31,25,39,25,6,26,28,80,28,27,31,27,29,26,35,70,25&chm=H,FF0000,0,18,1", 75,30)\n    graph2 = Image("https://chart.googleapis.com/chart?chs=200x125&cht=lc&chco=0077CC&chxt=y&chd=t:27,25,60,31,25,39,25,6,26,28,80,28,27,31,27,29,26,35,70,25&chm=H,FF0000,0,18,1&chtt=Actual", 75,40)\n    graph3 = Image("https://chart.googleapis.com/chart?cht=lc&chd=s:cEAELFJHHHKUju9uuXUc&chco=76A4FB&chls=2.0,0.0,0.0&chs=200x125&chg=20,50,3,3,10,20&chxt=x,y&chxl=0:%7C0%7C1%7C2%7C3%7C4%7C5%7C1:%7C0%7C50%7C100&chtt=Hist\xc3\xb3rico", 75,40)\n    graph4 = Image("https://chart.googleapis.com/chart?cht=lc&chd=s:cEAELFJHHHKUju9uuXUc&chco=76A4FB&chls=2.0,0.0,0.0&chs=200x125&chg=20,50,3,3,10,20&chxt=x,y&chxl=0:%7C0%7C1%7C2%7C3%7C4%7C5%7C1:%7C0%7C50%7C100", 75,40)\n    graph5 = Image("https://chart.googleapis.com/chart?cht=lc&chd=s:UVVUVVUUUVVUSSVVVXXYadfhjlllllllmmliigdbbZZXVVUUUTU&chco=0000FF&chls=2.0,1.0,0.0&chs=200x125&chxt=x,y&chxl=0:%7CJan%7CFeb%7CMar%7CJun%7CJul%7CAug%7C1:%7C0%7C25%7C50%7C75%7C100&chg=100.0,25.0&chf=c,ls,90,999999,0.25,CCCCCC,0.25,FFFFFF,0.25", 75,40)\n    graph6 = Image("https://chart.googleapis.com/chart?cht=lc&chd=s:UVVUVVUUUVVUSSVVVXXYadfhjlllllllmmliigdbbZZXVVUUUTU&chco=0000FF&chls=2.0,1.0,0.0&chs=200x125&chxt=x,y&chxl=0:%7CJan%7CFeb%7CMar%7CJun%7CJul%7CAug%7C1:%7C0%7C25%7C50%7C75%7C100&chg=100.0,25.0&chf=c,ls,90,999999,0.25,CCCCCC,0.25,FFFFFF,0.25&chtt=ADITIVOS", 75,40)\n    \n    #doc.add(pdf.Table([[graph1,graph2]], style=[(\'VALIGN\', (0,0), (-1,-1), \'TOP\')]))\n\n    doc.add_spacer()\n\n\n    doc.add_header(\'Tendencias\', pdf.H3)\n    doc.add_spacer()\n    #doc.add_paragraph("Desgaste")\n    data= [[\'DESGASTE\',\'\',\'CONTAMINACI\xc3\x93N\',\'CONDICI\xc3\x93N DEL ACEITE\',\'\'],\n     [graph1,graph1,graph2,graph1,graph1],\n     [graph1, graph1, \'\', graph5, graph5],\n     [graph1, graph1, graph3, graph5, graph5],\n     [graph1, graph1, graph4, graph6, graph5],\n     [graph1, \'\', \'\', graph5, graph5]]\n    t=Table(data,style=[\n     (\'SIZE\',(0,0),(-1,-1),6.1),\n     (\'TEXTCOLOR\',(0,0),(-1,-1),colors.HexColor(\'#B8B8B8\')),\n     (\'ALIGN\',(0,0),(-1,-1),\'CENTRE\'),\n     (\'RIGHTPADDING\',(0,0),(-1,-1),2),\n     (\'LEFTPADDING\',(0,0),(-1,-1),2),\n     (\'TOPPADDING\',(0,0),(-1,-1),0),\n     (\'BOTTOMPADDING\',(0,0),(-1,-1),0),\n     (\'BACKGROUND\', (0,0), (-1,-1), colors.HexColor(\'#A34747\')),\n     (\'SPAN\',(2,1),(2,2)),\n     ])\n\n    doc.add(t)\n    \n    doc.add_spacer()\n    #doc.add_paragraph("Contaminaci\xc3\xb3n")\n    \n    #tend2 = pdf.Image("https://chart.googleapis.com/chart?chs=200x125&cht=lc&chco=0077CC&chxt=y&chd=t:27,25,60,31,25,39,25,6,26,28,80,28,27,31,27,29,26,35,70,25&chm=H,FF0000,0,18,1", 250,150)\n    #doc.add(tend2)\n    \n    #doc.add_spacer()\n    #doc.add_paragraph("Condici\xc3\xb3n del Aceite")\n    \n    #tend3 = pdf.Image("https://chart.googleapis.com/chart?cht=lc&chd=s:cEAELFJHHHKUju9uuXUc&chco=76A4FB&chls=2.0,0.0,0.0&chs=200x125&chg=20,50,3,3,10,20&chxt=x,y&chxl=0:%7C0%7C1%7C2%7C3%7C4%7C5%7C1:%7C0%7C50%7C100", 250,150)\n    #doc.add(tend3)\n    # all the rest I omitted here but you get the picture.\n\n    # read the reportLab docs and the source below to figure out how to tewak things.\n\n    # again, see http://www.reportlab.com/docs/reportlab-userguide.pdf\n\n    # ...\n\n    # ...\n\n    header = {\'Content-Type\': \'application/pdf\'}\n    response.headers.update(header)\n    return doc.render()\n\nimport cStringIO\n \nfrom reportlab.platypus.doctemplate import SimpleDocTemplate\nfrom reportlab.platypus import Paragraph, Spacer\nfrom reportlab.lib.styles import getSampleStyleSheet\nfrom reportlab.lib.units import inch\nfrom reportlab.platypus.flowables import Image\nfrom reportlab.platypus.tables import Table, TableStyle\n\nresponse._vars=response._caller(confirmation_pdf)\n'
p7
sS'snapshot'
p8
(dp9
S'exception'
p10
(dp11
S'__hash__'
p12
S"<method-wrapper '__hash__' of exceptions.AttributeError object>"
p13
sS'__setattr__'
p14
S"<method-wrapper '__setattr__' of exceptions.AttributeError object>"
p15
sS'__reduce_ex__'
p16
S'<built-in method __reduce_ex__ of exceptions.AttributeError object>'
p17
sS'__getslice__'
p18
S"<method-wrapper '__getslice__' of exceptions.AttributeError object>"
p19
sS'__getitem__'
p20
S"<method-wrapper '__getitem__' of exceptions.AttributeError object>"
p21
sS'__setstate__'
p22
S'<built-in method __setstate__ of exceptions.AttributeError object>'
p23
sS'__reduce__'
p24
S'<built-in method __reduce__ of exceptions.AttributeError object>'
p25
sS'__str__'
p26
S"<method-wrapper '__str__' of exceptions.AttributeError object>"
p27
sS'__format__'
p28
S'<built-in method __format__ of exceptions.AttributeError object>'
p29
sS'__getattribute__'
p30
S"<method-wrapper '__getattribute__' of exceptions.AttributeError object>"
p31
sS'__class__'
p32
S"<type 'exceptions.AttributeError'>"
p33
sS'__unicode__'
p34
S'<built-in method __unicode__ of exceptions.AttributeError object>'
p35
sS'__delattr__'
p36
S"<method-wrapper '__delattr__' of exceptions.AttributeError object>"
p37
sS'__subclasshook__'
p38
S'<built-in method __subclasshook__ of type object>'
p39
sS'__repr__'
p40
S"<method-wrapper '__repr__' of exceptions.AttributeError object>"
p41
sS'args'
p42
S'("\'DAL\' object has no attribute \'infra\'",)'
p43
sS'__dict__'
p44
S'{}'
p45
sS'__sizeof__'
p46
S'<built-in method __sizeof__ of exceptions.AttributeError object>'
p47
sS'__doc__'
p48
S"'Attribute not found.'"
p49
sS'__init__'
p50
S"<method-wrapper '__init__' of exceptions.AttributeError object>"
p51
sS'__new__'
p52
S'<built-in method __new__ of type object>'
p53
ssS'evalue'
p54
S"'DAL' object has no attribute 'infra'"
p55
sS'request'
p56
cgluon.html
XML_unpickle
p57
(S's\xda\x92\x00\x00<div><table><tr><td style="font-weight:bold;vertical-align:top;">ajax</td><td style="vertical-align:top;">:</td><td><div>False</div></td></tr><tr><td style="font-weight:bold;vertical-align:top;">application</td><td style="vertical-align:top;">:</td><td><div>LubemanEX</div></td></tr><tr><td style="font-weight:bold;vertical-align:top;">args</td><td style="vertical-align:top;">:</td><td><div><table></table></div></td></tr><tr><td style="font-weight:bold;vertical-align:top;">cid</td><td style="vertical-align:top;">:</td><td><div>None</div></td></tr><tr><td style="font-weight:bold;vertical-align:top;">client</td><td style="vertical-align:top;">:</td><td><div>127.0.0.1</div></td></tr><tr><td style="font-weight:bold;vertical-align:top;">controller</td><td style="vertical-align:top;">:</td><td><div>sys</div></td></tr><tr><td style="font-weight:bold;vertical-align:top;">cookies</td><td style="vertical-align:top;">:</td><td><div><table><tr><td style="font-weight:bold;vertical-align:top;">session_data_examples</td><td style="vertical-align:top;">:</td><td><div>6d852f3f2ae9729e61167ccb1e656a79:p54y6E2ANni2cnL902a6JGWVDHZRCgrHsCyMWJnSa48EHv-MQSPC31WZtpsTDfAgBBcD1Ymb5wlX0Fz2RKTrMk_zkwvoeGJRDVFGsIg7t3WFodBT1UdlXCpTBGeMXOggIKkhIBjo1D1C9lVwrCwlQiNpe3rlQK_PoBQlWDRb6FaCg1nmXMti7AMptrt8RM-eXH2fQCF-Mkf8KByJnJJZOrzTJ2VeL-2aRDOFWdhTB0LZaqUazQOPXAqkqTuIXMDTE2YNFo0QYqauzR9Gghh4MwlF1hAiMhMhoxAMrMGWQcToqyDuZRHAVIOKbKSw4yIu33p0mkHWSmPVPoiIJ2BwaAE76Dl3juG94biOlIcMcFM=<table><tr><td style="font-weight:bold;vertical-align:top;">comment</td><td style="vertical-align:top;">:</td><td><div></div></td></tr><tr><td style="font-weight:bold;vertical-align:top;">domain</td><td style="vertical-align:top;">:</td><td><div></div></td></tr><tr><td style="font-weight:bold;vertical-align:top;">expires</td><td style="vertical-align:top;">:</td><td><div></div></td></tr><tr><td style="font-weight:bold;vertical-align:top;">httponly</td><td style="vertical-align:top;">:</td><td><div></div></td></tr><tr><td style="font-weight:bold;vertical-align:top;">max-age</td><td style="vertical-align:top;">:</td><td><div></div></td></tr><tr><td style="font-weight:bold;vertical-align:top;">path</td><td style="vertical-align:top;">:</td><td><div></div></td></tr><tr><td style="font-weight:bold;vertical-align:top;">secure</td><td style="vertical-align:top;">:</td><td><div></div></td></tr><tr><td style="font-weight:bold;vertical-align:top;">version</td><td style="vertical-align:top;">:</td><td><div></div></td></tr></table></div></td></tr><tr><td style="font-weight:bold;vertical-align:top;">session_id_admin</td><td style="vertical-align:top;">:</td><td><div>127.0.0.1-6cd0dd2a-01d8-4598-a052-f31bab161a7c<table><tr><td style="font-weight:bold;vertical-align:top;">comment</td><td style="vertical-align:top;">:</td><td><div></div></td></tr><tr><td style="font-weight:bold;vertical-align:top;">domain</td><td style="vertical-align:top;">:</td><td><div></div></td></tr><tr><td style="font-weight:bold;vertical-align:top;">expires</td><td style="vertical-align:top;">:</td><td><div></div></td></tr><tr><td style="font-weight:bold;vertical-align:top;">httponly</td><td style="vertical-align:top;">:</td><td><div></div></td></tr><tr><td style="font-weight:bold;vertical-align:top;">max-age</td><td style="vertical-align:top;">:</td><td><div></div></td></tr><tr><td style="font-weight:bold;vertical-align:top;">path</td><td style="vertical-align:top;">:</td><td><div></div></td></tr><tr><td style="font-weight:bold;vertical-align:top;">secure</td><td style="vertical-align:top;">:</td><td><div></div></td></tr><tr><td style="font-weight:bold;vertical-align:top;">version</td><td style="vertical-align:top;">:</td><td><div></div></td></tr></table></div></td></tr><tr><td style="font-weight:bold;vertical-align:top;">session_id_gps_demo</td><td style="vertical-align:top;">:</td><td><div>127.0.0.1-1a364d91-8410-4402-a77a-884685b0a7eb<table><tr><td style="font-weight:bold;vertical-align:top;">comment</td><td style="vertical-align:top;">:</td><td><div></div></td></tr><tr><td style="font-weight:bold;vertical-align:top;">domain</td><td style="vertical-align:top;">:</td><td><div></div></td></tr><tr><td style="font-weight:bold;vertical-align:top;">expires</td><td style="vertical-align:top;">:</td><td><div></div></td></tr><tr><td style="font-weight:bold;vertical-align:top;">httponly</td><td style="vertical-align:top;">:</td><td><div></div></td></tr><tr><td style="font-weight:bold;vertical-align:top;">max-age</td><td style="vertical-align:top;">:</td><td><div></div></td></tr><tr><td style="font-weight:bold;vertical-align:top;">path</td><td style="vertical-align:top;">:</td><td><div></div></td></tr><tr><td style="font-weight:bold;vertical-align:top;">secure</td><td style="vertical-align:top;">:</td><td><div></div></td></tr><tr><td style="font-weight:bold;vertical-align:top;">version</td><td style="vertical-align:top;">:</td><td><div></div></td></tr></table></div></td></tr><tr><td style="font-weight:bold;vertical-align:top;">session_id_lubeman</td><td style="vertical-align:top;">:</td><td><div>127.0.0.1-7de01d46-8c7f-4d8a-b551-ae610a18f13a<table><tr><td style="font-weight:bold;vertical-align:top;">comment</td><td style="vertical-align:top;">:</td><td><div></div></td></tr><tr><td style="font-weight:bold;vertical-align:top;">domain</td><td style="vertical-align:top;">:</td><td><div></div></td></tr><tr><td style="font-weight:bold;vertical-align:top;">expires</td><td style="vertical-align:top;">:</td><td><div></div></td></tr><tr><td style="font-weight:bold;vertical-align:top;">httponly</td><td style="vertical-align:top;">:</td><td><div></div></td></tr><tr><td style="font-weight:bold;vertical-align:top;">max-age</td><td style="vertical-align:top;">:</td><td><div></div></td></tr><tr><td style="font-weight:bold;vertical-align:top;">path</td><td style="vertical-align:top;">:</td><td><div></div></td></tr><tr><td style="font-weight:bold;vertical-align:top;">secure</td><td style="vertical-align:top;">:</td><td><div></div></td></tr><tr><td style="font-weight:bold;vertical-align:top;">version</td><td style="vertical-align:top;">:</td><td><div></div></td></tr></table></div></td></tr><tr><td style="font-weight:bold;vertical-align:top;">session_id_lubeman2</td><td style="vertical-align:top;">:</td><td><div>127.0.0.1-43801b75-1701-4ee0-8478-3b21c2805ac7<table><tr><td style="font-weight:bold;vertical-align:top;">comment</td><td style="vertical-align:top;">:</td><td><div></div></td></tr><tr><td style="font-weight:bold;vertical-align:top;">domain</td><td style="vertical-align:top;">:</td><td><div></div></td></tr><tr><td style="font-weight:bold;vertical-align:top;">expires</td><td style="vertical-align:top;">:</td><td><div></div></td></tr><tr><td style="font-weight:bold;vertical-align:top;">httponly</td><td style="vertical-align:top;">:</td><td><div></div></td></tr><tr><td style="font-weight:bold;vertical-align:top;">max-age</td><td style="vertical-align:top;">:</td><td><div></div></td></tr><tr><td style="font-weight:bold;vertical-align:top;">path</td><td style="vertical-align:top;">:</td><td><div></div></td></tr><tr><td style="font-weight:bold;vertical-align:top;">secure</td><td style="vertical-align:top;">:</td><td><div></div></td></tr><tr><td style="font-weight:bold;vertical-align:top;">version</td><td style="vertical-align:top;">:</td><td><div></div></td></tr></table></div></td></tr><tr><td style="font-weight:bold;vertical-align:top;">session_id_lubeman3</td><td style="vertical-align:top;">:</td><td><div>127.0.0.1-830e0cee-526f-422d-baca-aed02f52d62b<table><tr><td style="font-weight:bold;vertical-align:top;">comment</td><td style="vertical-align:top;">:</td><td><div></div></td></tr><tr><td style="font-weight:bold;vertical-align:top;">domain</td><td style="vertical-align:top;">:</td><td><div></div></td></tr><tr><td style="font-weight:bold;vertical-align:top;">expires</td><td style="vertical-align:top;">:</td><td><div></div></td></tr><tr><td style="font-weight:bold;vertical-align:top;">httponly</td><td style="vertical-align:top;">:</td><td><div></div></td></tr><tr><td style="font-weight:bold;vertical-align:top;">max-age</td><td style="vertical-align:top;">:</td><td><div></div></td></tr><tr><td style="font-weight:bold;vertical-align:top;">path</td><td style="vertical-align:top;">:</td><td><div></div></td></tr><tr><td style="font-weight:bold;vertical-align:top;">secure</td><td style="vertical-align:top;">:</td><td><div></div></td></tr><tr><td style="font-weight:bold;vertical-align:top;">version</td><td style="vertical-align:top;">:</td><td><div></div></td></tr></table></div></td></tr><tr><td style="font-weight:bold;vertical-align:top;">session_id_lubeman4</td><td style="vertical-align:top;">:</td><td><div>127.0.0.1-c4993227-e867-451b-8ecb-4b5d70d92d8a<table><tr><td style="font-weight:bold;vertical-align:top;">comment</td><td style="vertical-align:top;">:</td><td><div></div></td></tr><tr><td style="font-weight:bold;vertical-align:top;">domain</td><td style="vertical-align:top;">:</td><td><div></div></td></tr><tr><td style="font-weight:bold;vertical-align:top;">expires</td><td style="vertical-align:top;">:</td><td><div></div></td></tr><tr><td style="font-weight:bold;vertical-align:top;">httponly</td><td style="vertical-align:top;">:</td><td><div></div></td></tr><tr><td style="font-weight:bold;vertical-align:top;">max-age</td><td style="vertical-align:top;">:</td><td><div></div></td></tr><tr><td style="font-weight:bold;vertical-align:top;">path</td><td style="vertical-align:top;">:</td><td><div></div></td></tr><tr><td style="font-weight:bold;vertical-align:top;">secure</td><td style="vertical-align:top;">:</td><td><div></div></td></tr><tr><td style="font-weight:bold;vertical-align:top;">version</td><td style="vertical-align:top;">:</td><td><div></div></td></tr></table></div></td></tr><tr><td style="font-weight:bold;vertical-align:top;">session_id_lubemanex</td><td style="vertical-align:top;">:</td><td><div>127.0.0.1-ea9129e5-05be-4251-bb81-bbda688a4e2e<table><tr><td style="font-weight:bold;vertical-align:top;">comment</td><td style="vertical-align:top;">:</td><td><div></div></td></tr><tr><td style="font-weight:bold;vertical-align:top;">domain</td><td style="vertical-align:top;">:</td><td><div></div></td></tr><tr><td style="font-weight:bold;vertical-align:top;">expires</td><td style="vertical-align:top;">:</td><td><div></div></td></tr><tr><td style="font-weight:bold;vertical-align:top;">httponly</td><td style="vertical-align:top;">:</td><td><div></div></td></tr><tr><td style="font-weight:bold;vertical-align:top;">max-age</td><td style="vertical-align:top;">:</td><td><div></div></td></tr><tr><td style="font-weight:bold;vertical-align:top;">path</td><td style="vertical-align:top;">:</td><td><div></div></td></tr><tr><td style="font-weight:bold;vertical-align:top;">secure</td><td style="vertical-align:top;">:</td><td><div></div></td></tr><tr><td style="font-weight:bold;vertical-align:top;">version</td><td style="vertical-align:top;">:</td><td><div></div></td></tr></table></div></td></tr><tr><td style="font-weight:bold;vertical-align:top;">session_id_myapp</td><td style="vertical-align:top;">:</td><td><div>127.0.0.1-896a7649-dee8-4311-8905-b8f64a824fc5<table><tr><td style="font-weight:bold;vertical-align:top;">comment</td><td style="vertical-align:top;">:</td><td><div></div></td></tr><tr><td style="font-weight:bold;vertical-align:top;">domain</td><td style="vertical-align:top;">:</td><td><div></div></td></tr><tr><td style="font-weight:bold;vertical-align:top;">expires</td><td style="vertical-align:top;">:</td><td><div></div></td></tr><tr><td style="font-weight:bold;vertical-align:top;">httponly</td><td style="vertical-align:top;">:</td><td><div></div></td></tr><tr><td style="font-weight:bold;vertical-align:top;">max-age</td><td style="vertical-align:top;">:</td><td><div></div></td></tr><tr><td style="font-weight:bold;vertical-align:top;">path</td><td style="vertical-align:top;">:</td><td><div></div></td></tr><tr><td style="font-weight:bold;vertical-align:top;">secure</td><td style="vertical-align:top;">:</td><td><div></div></td></tr><tr><td style="font-weight:bold;vertical-align:top;">version</td><td style="vertical-align:top;">:</td><td><div></div></td></tr></table></div></td></tr><tr><td style="font-weight:bold;vertical-align:top;">session_id_pypdf_demo</td><td style="vertical-align:top;">:</td><td><div>127.0.0.1-563fb8d9-0fcc-4dc9-9f83-6d7551e461d6<table><tr><td style="font-weight:bold;vertical-align:top;">comment</td><td style="vertical-align:top;">:</td><td><div></div></td></tr><tr><td style="font-weight:bold;vertical-align:top;">domain</td><td style="vertical-align:top;">:</td><td><div></div></td></tr><tr><td style="font-weight:bold;vertical-align:top;">expires</td><td style="vertical-align:top;">:</td><td><div></div></td></tr><tr><td style="font-weight:bold;vertical-align:top;">httponly</td><td style="vertical-align:top;">:</td><td><div></div></td></tr><tr><td style="font-weight:bold;vertical-align:top;">max-age</td><td style="vertical-align:top;">:</td><td><div></div></td></tr><tr><td style="font-weight:bold;vertical-align:top;">path</td><td style="vertical-align:top;">:</td><td><div></div></td></tr><tr><td style="font-weight:bold;vertical-align:top;">secure</td><td style="vertical-align:top;">:</td><td><div></div></td></tr><tr><td style="font-weight:bold;vertical-align:top;">version</td><td style="vertical-align:top;">:</td><td><div></div></td></tr></table></div></td></tr><tr><td style="font-weight:bold;vertical-align:top;">session_id_pypdf_demo2</td><td style="vertical-align:top;">:</td><td><div>127.0.0.1-6f570af7-2c62-487f-b771-f48ffafae1c7<table><tr><td style="font-weight:bold;vertical-align:top;">comment</td><td style="vertical-align:top;">:</td><td><div></div></td></tr><tr><td style="font-weight:bold;vertical-align:top;">domain</td><td style="vertical-align:top;">:</td><td><div></div></td></tr><tr><td style="font-weight:bold;vertical-align:top;">expires</td><td style="vertical-align:top;">:</td><td><div></div></td></tr><tr><td style="font-weight:bold;vertical-align:top;">httponly</td><td style="vertical-align:top;">:</td><td><div></div></td></tr><tr><td style="font-weight:bold;vertical-align:top;">max-age</td><td style="vertical-align:top;">:</td><td><div></div></td></tr><tr><td style="font-weight:bold;vertical-align:top;">path</td><td style="vertical-align:top;">:</td><td><div></div></td></tr><tr><td style="font-weight:bold;vertical-align:top;">secure</td><td style="vertical-align:top;">:</td><td><div></div></td></tr><tr><td style="font-weight:bold;vertical-align:top;">version</td><td style="vertical-align:top;">:</td><td><div></div></td></tr></table></div></td></tr><tr><td style="font-weight:bold;vertical-align:top;">session_id_welcome</td><td style="vertical-align:top;">:</td><td><div>127.0.0.1-52a0b821-2ed7-48b3-8274-3a27e39d9bf0<table><tr><td style="font-weight:bold;vertical-align:top;">comment</td><td style="vertical-align:top;">:</td><td><div></div></td></tr><tr><td style="font-weight:bold;vertical-align:top;">domain</td><td style="vertical-align:top;">:</td><td><div></div></td></tr><tr><td style="font-weight:bold;vertical-align:top;">expires</td><td style="vertical-align:top;">:</td><td><div></div></td></tr><tr><td style="font-weight:bold;vertical-align:top;">httponly</td><td style="vertical-align:top;">:</td><td><div></div></td></tr><tr><td style="font-weight:bold;vertical-align:top;">max-age</td><td style="vertical-align:top;">:</td><td><div></div></td></tr><tr><td style="font-weight:bold;vertical-align:top;">path</td><td style="vertical-align:top;">:</td><td><div></div></td></tr><tr><td style="font-weight:bold;vertical-align:top;">secure</td><td style="vertical-align:top;">:</td><td><div></div></td></tr><tr><td style="font-weight:bold;vertical-align:top;">version</td><td style="vertical-align:top;">:</td><td><div></div></td></tr></table></div></td></tr></table></div></td></tr><tr><td style="font-weight:bold;vertical-align:top;">env</td><td style="vertical-align:top;">:</td><td><div><table><tr><td style="font-weight:bold;vertical-align:top;">HTTP_ACCEPT</td><td style="vertical-align:top;">:</td><td><div>text/html,application/xhtml+xml,application/xml;q=0.9,image/webp,*/*;q=0.8</div></td></tr><tr><td style="font-weight:bold;vertical-align:top;">HTTP_ACCEPT_ENCODING</td><td style="vertical-align:top;">:</td><td><div>gzip,deflate,sdch</div></td></tr><tr><td style="font-weight:bold;vertical-align:top;">HTTP_ACCEPT_LANGUAGE</td><td style="vertical-align:top;">:</td><td><div>en-US,en;q=0.8,es;q=0.6</div></td></tr><tr><td style="font-weight:bold;vertical-align:top;">HTTP_CACHE_CONTROL</td><td style="vertical-align:top;">:</td><td><div>max-age=0</div></td></tr><tr><td style="font-weight:bold;vertical-align:top;">HTTP_CONNECTION</td><td style="vertical-align:top;">:</td><td><div>keep-alive</div></td></tr><tr><td style="font-weight:bold;vertical-align:top;">HTTP_COOKIE</td><td style="vertical-align:top;">:</td><td><div>session_id_myapp=127.0.0.1-896a7649-dee8-4311-8905-b8f64a824fc5; session_data_examples=&quot;6d852f3f2ae9729e61167ccb1e656a79:p54y6E2ANni2cnL902a6JGWVDHZRCgrHsCyMWJnSa48EHv-MQSPC31WZtpsTDfAgBBcD1Ymb5wlX0Fz2RKTrMk_zkwvoeGJRDVFGsIg7t3WFodBT1UdlXCpTBGeMXOggIKkhIBjo1D1C9lVwrCwlQiNpe3rlQK_PoBQlWDRb6FaCg1nmXMti7AMptrt8RM-eXH2fQCF-Mkf8KByJnJJZOrzTJ2VeL-2aRDOFWdhTB0LZaqUazQOPXAqkqTuIXMDTE2YNFo0QYqauzR9Gghh4MwlF1hAiMhMhoxAMrMGWQcToqyDuZRHAVIOKbKSw4yIu33p0mkHWSmPVPoiIJ2BwaAE76Dl3juG94biOlIcMcFM=&quot;; session_id_gps_demo=127.0.0.1-1a364d91-8410-4402-a77a-884685b0a7eb; session_id_lubeman=127.0.0.1-7de01d46-8c7f-4d8a-b551-ae610a18f13a; session_id_pypdf_demo2=127.0.0.1-6f570af7-2c62-487f-b771-f48ffafae1c7; session_id_pypdf_demo=127.0.0.1-563fb8d9-0fcc-4dc9-9f83-6d7551e461d6; session_id_lubeman2=127.0.0.1-43801b75-1701-4ee0-8478-3b21c2805ac7; session_id_lubeman4=127.0.0.1-c4993227-e867-451b-8ecb-4b5d70d92d8a; session_id_lubeman3=127.0.0.1-830e0cee-526f-422d-baca-aed02f52d62b; session_id_welcome=127.0.0.1-52a0b821-2ed7-48b3-8274-3a27e39d9bf0; session_id_lubemanex=127.0.0.1-ea9129e5-05be-4251-bb81-bbda688a4e2e; session_id_admin=127.0.0.1-6cd0dd2a-01d8-4598-a052-f31bab161a7c</div></td></tr><tr><td style="font-weight:bold;vertical-align:top;">HTTP_HOST</td><td style="vertical-align:top;">:</td><td><div>127.0.0.1:8000</div></td></tr><tr><td style="font-weight:bold;vertical-align:top;">HTTP_USER_AGENT</td><td style="vertical-align:top;">:</td><td><div>Mozilla/5.0 (Windows NT 6.1; WOW64) AppleWebKit/537.36 (KHTML, like Gecko) Chrome/32.0.1700.76 Safari/537.36</div></td></tr><tr><td style="font-weight:bold;vertical-align:top;">PATH_INFO</td><td style="vertical-align:top;">:</td><td><div>/LubemanEX/sys/confirmation_pdf.pdf</div></td></tr><tr><td style="font-weight:bold;vertical-align:top;">QUERY_STRING</td><td style="vertical-align:top;">:</td><td><div></div></td></tr><tr><td style="font-weight:bold;vertical-align:top;">REMOTE_ADDR</td><td style="vertical-align:top;">:</td><td><div>127.0.0.1</div></td></tr><tr><td style="font-weight:bold;vertical-align:top;">REMOTE_PORT</td><td style="vertical-align:top;">:</td><td><div>59008</div></td></tr><tr><td style="font-weight:bold;vertical-align:top;">REQUEST_METHOD</td><td style="vertical-align:top;">:</td><td><div>GET</div></td></tr><tr><td style="font-weight:bold;vertical-align:top;">SCRIPT_NAME</td><td style="vertical-align:top;">:</td><td><div></div></td></tr><tr><td style="font-weight:bold;vertical-align:top;">SERVER_NAME</td><td style="vertical-align:top;">:</td><td><div>AKU-PC</div></td></tr><tr><td style="font-weight:bold;vertical-align:top;">SERVER_PORT</td><td style="vertical-align:top;">:</td><td><div>8000</div></td></tr><tr><td style="font-weight:bold;vertical-align:top;">SERVER_PROTOCOL</td><td style="vertical-align:top;">:</td><td><div>HTTP/1.1</div></td></tr><tr><td style="font-weight:bold;vertical-align:top;">SERVER_SOFTWARE</td><td style="vertical-align:top;">:</td><td><div>Rocket 1.2.6</div></td></tr><tr><td style="font-weight:bold;vertical-align:top;">app_folders</td><td style="vertical-align:top;">:</td><td><div>set([&#x27;D:\\\\Work\\\\web2py_src\\\\web2py\\\\applications\\\\welcome\\\\&#x27;, &#x27;D:\\\\Work\\\\web2py_src\\\\web2py\\\\applications\\\\admin\\\\&#x27;, &#x27;D:\\\\Work\\\\web2py_src\\\\web2py\\\\applications\\\\LubemanEX\\\\&#x27;])</div></td></tr><tr><td style="font-weight:bold;vertical-align:top;">applications_parent</td><td style="vertical-align:top;">:</td><td><div>D:\\Work\\web2py_src\\web2py</div></td></tr><tr><td style="font-weight:bold;vertical-align:top;">cmd_args</td><td style="vertical-align:top;">:</td><td><div><table></table></div></td></tr><tr><td style="font-weight:bold;vertical-align:top;">cmd_options</td><td style="vertical-align:top;">:</td><td><div>&lt;Values at 0x3466aa8: {&#x27;verbose&#x27;: False, &#x27;ip&#x27;: &#x27;127.0.0.1&#x27;, &#x27;debuglevel&#x27;: 30, &#x27;with_scheduler&#x27;: False, &#x27;ips&#x27;: [&#x27;fe80::dc16:4dd0:5307:11b1%11&#x27;, &#x27;192.168.100.1&#x27;, &#x27;fe80::d51d:ec06:d31b:c09b%17&#x27;, &#x27;192.168.1.101&#x27;, &#x27;192.168.228.1&#x27;, &#x27;fe80::84df:60e0:d6ee:70be%18&#x27;, &#x27;192.168.145.1&#x27;, &#x27;fe80::3524:333a:7aa2:b71b%16&#x27;], &#x27;shutdown_timeout&#x27;: 5, &#x27;taskbar&#x27;: False, &#x27;with_coverage&#x27;: False, &#x27;port&#x27;: 8000, &#x27;maxthreads&#x27;: None, &#x27;softcron&#x27;: False, &#x27;server_name&#x27;: &#x27;AKU-PC&#x27;, &#x27;bpython&#x27;: False, &#x27;nogui&#x27;: False, &#x27;pid_filename&#x27;: &#x27;httpserver.pid&#x27;, &#x27;extcron&#x27;: False, &#x27;runcron&#x27;: False, &#x27;run_system_tests&#x27;: False, &#x27;test&#x27;: None, &#x27;folder&#x27;: &#x27;D:\\\\Work\\\\web2py_src\\\\web2py&#x27;, &#x27;config&#x27;: &#x27;&#x27;, &#x27;minthreads&#x27;: None, &#x27;shell&#x27;: None, &#x27;run&#x27;: &#x27;&#x27;, &#x27;log_filename&#x27;: &#x27;httpserver.log&#x27;, &#x27;profiler_dir&#x27;: None, &#x27;args&#x27;: [&#x27;&#x27;], &#x27;socket_timeout&#x27;: 5, &#x27;ssl_ca_certificate&#x27;: None, &#x27;scheduler&#x27;: None, &#x27;interfaces&#x27;: None, &#x27;ssl_private_key&#x27;: &#x27;&#x27;, &#x27;scheduler_groups&#x27;: None, &#x27;password&#x27;: &#x27;&lt;ask&gt;&#x27;, &#x27;request_queue_size&#x27;: 5, &#x27;ssl_certificate&#x27;: &#x27;&#x27;, &#x27;cronjob&#x27;: False, &#x27;numthreads&#x27;: None, &#x27;quiet&#x27;: False, &#x27;import_models&#x27;: False, &#x27;timeout&#x27;: 10, &#x27;plain&#x27;: False, &#x27;nobanner&#x27;: False}&gt;</div></td></tr><tr><td style="font-weight:bold;vertical-align:top;">db_sessions</td><td style="vertical-align:top;">:</td><td><div>set([])</div></td></tr><tr><td style="font-weight:bold;vertical-align:top;">debugging</td><td style="vertical-align:top;">:</td><td><div>True</div></td></tr><tr><td style="font-weight:bold;vertical-align:top;">gluon_parent</td><td style="vertical-align:top;">:</td><td><div>D:\\Work\\web2py_src\\web2py</div></td></tr><tr><td style="font-weight:bold;vertical-align:top;">http_accept</td><td style="vertical-align:top;">:</td><td><div>text/html,application/xhtml+xml,application/xml;q=0.9,image/webp,*/*;q=0.8</div></td></tr><tr><td style="font-weight:bold;vertical-align:top;">http_accept_encoding</td><td style="vertical-align:top;">:</td><td><div>gzip,deflate,sdch</div></td></tr><tr><td style="font-weight:bold;vertical-align:top;">http_accept_language</td><td style="vertical-align:top;">:</td><td><div>en-US,en;q=0.8,es;q=0.6</div></td></tr><tr><td style="font-weight:bold;vertical-align:top;">http_cache_control</td><td style="vertical-align:top;">:</td><td><div>max-age=0</div></td></tr><tr><td style="font-weight:bold;vertical-align:top;">http_connection</td><td style="vertical-align:top;">:</td><td><div>keep-alive</div></td></tr><tr><td style="font-weight:bold;vertical-align:top;">http_cookie</td><td style="vertical-align:top;">:</td><td><div>session_id_myapp=127.0.0.1-896a7649-dee8-4311-8905-b8f64a824fc5; session_data_examples=&quot;6d852f3f2ae9729e61167ccb1e656a79:p54y6E2ANni2cnL902a6JGWVDHZRCgrHsCyMWJnSa48EHv-MQSPC31WZtpsTDfAgBBcD1Ymb5wlX0Fz2RKTrMk_zkwvoeGJRDVFGsIg7t3WFodBT1UdlXCpTBGeMXOggIKkhIBjo1D1C9lVwrCwlQiNpe3rlQK_PoBQlWDRb6FaCg1nmXMti7AMptrt8RM-eXH2fQCF-Mkf8KByJnJJZOrzTJ2VeL-2aRDOFWdhTB0LZaqUazQOPXAqkqTuIXMDTE2YNFo0QYqauzR9Gghh4MwlF1hAiMhMhoxAMrMGWQcToqyDuZRHAVIOKbKSw4yIu33p0mkHWSmPVPoiIJ2BwaAE76Dl3juG94biOlIcMcFM=&quot;; session_id_gps_demo=127.0.0.1-1a364d91-8410-4402-a77a-884685b0a7eb; session_id_lubeman=127.0.0.1-7de01d46-8c7f-4d8a-b551-ae610a18f13a; session_id_pypdf_demo2=127.0.0.1-6f570af7-2c62-487f-b771-f48ffafae1c7; session_id_pypdf_demo=127.0.0.1-563fb8d9-0fcc-4dc9-9f83-6d7551e461d6; session_id_lubeman2=127.0.0.1-43801b75-1701-4ee0-8478-3b21c2805ac7; session_id_lubeman4=127.0.0.1-c4993227-e867-451b-8ecb-4b5d70d92d8a; session_id_lubeman3=127.0.0.1-830e0cee-526f-422d-baca-aed02f52d62b; session_id_welcome=127.0.0.1-52a0b821-2ed7-48b3-8274-3a27e39d9bf0; session_id_lubemanex=127.0.0.1-ea9129e5-05be-4251-bb81-bbda688a4e2e; session_id_admin=127.0.0.1-6cd0dd2a-01d8-4598-a052-f31bab161a7c</div></td></tr><tr><td style="font-weight:bold;vertical-align:top;">http_host</td><td style="vertical-align:top;">:</td><td><div>127.0.0.1:8000</div></td></tr><tr><td style="font-weight:bold;vertical-align:top;">http_user_agent</td><td style="vertical-align:top;">:</td><td><div>Mozilla/5.0 (Windows NT 6.1; WOW64) AppleWebKit/537.36 (KHTML, like Gecko) Chrome/32.0.1700.76 Safari/537.36</div></td></tr><tr><td style="font-weight:bold;vertical-align:top;">is_jython</td><td style="vertical-align:top;">:</td><td><div>False</div></td></tr><tr><td style="font-weight:bold;vertical-align:top;">is_pypy</td><td style="vertical-align:top;">:</td><td><div>False</div></td></tr><tr><td style="font-weight:bold;vertical-align:top;">is_source</td><td style="vertical-align:top;">:</td><td><div>True</div></td></tr><tr><td style="font-weight:bold;vertical-align:top;">local_hosts</td><td style="vertical-align:top;">:</td><td><div><table><tr><td><div>fe80::dc16:4dd0:5307:11b1%11</div></td></tr><tr><td><div>192.168.228.1</div></td></tr><tr><td><div>fe80::d51d:ec06:d31b:c09b%17</div></td></tr><tr><td><div>192.168.1.101</div></td></tr><tr><td><div>::ffff:127.0.0.1</div></td></tr><tr><td><div>::1</div></td></tr><tr><td><div>AKU-PC</div></td></tr><tr><td><div>fe80::84df:60e0:d6ee:70be%18</div></td></tr><tr><td><div>192.168.145.1</div></td></tr><tr><td><div>192.168.100.1</div></td></tr><tr><td><div>fe80::3524:333a:7aa2:b71b%16</div></td></tr><tr><td><div>127.0.0.1</div></td></tr></table></div></td></tr><tr><td style="font-weight:bold;vertical-align:top;">path_info</td><td style="vertical-align:top;">:</td><td><div>/LubemanEX/sys/confirmation_pdf.pdf</div></td></tr><tr><td style="font-weight:bold;vertical-align:top;">query_string</td><td style="vertical-align:top;">:</td><td><div></div></td></tr><tr><td style="font-weight:bold;vertical-align:top;">remote_addr</td><td style="vertical-align:top;">:</td><td><div>127.0.0.1</div></td></tr><tr><td style="font-weight:bold;vertical-align:top;">remote_port</td><td style="vertical-align:top;">:</td><td><div>59008</div></td></tr><tr><td style="font-weight:bold;vertical-align:top;">request_method</td><td style="vertical-align:top;">:</td><td><div>GET</div></td></tr><tr><td style="font-weight:bold;vertical-align:top;">request_uri</td><td style="vertical-align:top;">:</td><td><div>/LubemanEX/sys/confirmation_pdf.pdf</div></td></tr><tr><td style="font-weight:bold;vertical-align:top;">script_name</td><td style="vertical-align:top;">:</td><td><div></div></td></tr><tr><td style="font-weight:bold;vertical-align:top;">server_name</td><td style="vertical-align:top;">:</td><td><div>AKU-PC</div></td></tr><tr><td style="font-weight:bold;vertical-align:top;">server_port</td><td style="vertical-align:top;">:</td><td><div>8000</div></td></tr><tr><td style="font-weight:bold;vertical-align:top;">server_protocol</td><td style="vertical-align:top;">:</td><td><div>HTTP/1.1</div></td></tr><tr><td style="font-weight:bold;vertical-align:top;">server_software</td><td style="vertical-align:top;">:</td><td><div>Rocket 1.2.6</div></td></tr><tr><td style="font-weight:bold;vertical-align:top;">web2py_path</td><td style="vertical-align:top;">:</td><td><div>D:\\Work\\web2py_src\\web2py</div></td></tr><tr><td style="font-weight:bold;vertical-align:top;">web2py_version</td><td style="vertical-align:top;">:</td><td><div>2.8.2-stable+timestamp.2013.11.28.13.54.07</div></td></tr><tr><td style="font-weight:bold;vertical-align:top;">wsgi.errors</td><td style="vertical-align:top;">:</td><td><div>&lt;open file &#x27;&lt;stderr&gt;&#x27;, mode &#x27;w&#x27; at 0x01C160D0&gt;</div></td></tr><tr><td style="font-weight:bold;vertical-align:top;">wsgi.file_wrapper</td><td style="vertical-align:top;">:</td><td><div>&lt;class wsgiref.util.FileWrapper at 0x0341F420&gt;</div></td></tr><tr><td style="font-weight:bold;vertical-align:top;">wsgi.input</td><td style="vertical-align:top;">:</td><td><div>&lt;socket._fileobject object at 0x096FFDB0&gt;</div></td></tr><tr><td style="font-weight:bold;vertical-align:top;">wsgi.multiprocess</td><td style="vertical-align:top;">:</td><td><div>False</div></td></tr><tr><td style="font-weight:bold;vertical-align:top;">wsgi.multithread</td><td style="vertical-align:top;">:</td><td><div>True</div></td></tr><tr><td style="font-weight:bold;vertical-align:top;">wsgi.run_once</td><td style="vertical-align:top;">:</td><td><div>False</div></td></tr><tr><td style="font-weight:bold;vertical-align:top;">wsgi.url_scheme</td><td style="vertical-align:top;">:</td><td><div>http</div></td></tr><tr><td style="font-weight:bold;vertical-align:top;">wsgi.version</td><td style="vertical-align:top;">:</td><td><div><table><tr><td><div>1</div></td></tr><tr><td><div>0</div></td></tr></table></div></td></tr><tr><td style="font-weight:bold;vertical-align:top;">wsgi_errors</td><td style="vertical-align:top;">:</td><td><div>&lt;open file &#x27;&lt;stderr&gt;&#x27;, mode &#x27;w&#x27; at 0x01C160D0&gt;</div></td></tr><tr><td style="font-weight:bold;vertical-align:top;">wsgi_file_wrapper</td><td style="vertical-align:top;">:</td><td><div>&lt;class wsgiref.util.FileWrapper at 0x0341F420&gt;</div></td></tr><tr><td style="font-weight:bold;vertical-align:top;">wsgi_input</td><td style="vertical-align:top;">:</td><td><div>&lt;socket._fileobject object at 0x096FFDB0&gt;</div></td></tr><tr><td style="font-weight:bold;vertical-align:top;">wsgi_multiprocess</td><td style="vertical-align:top;">:</td><td><div>False</div></td></tr><tr><td style="font-weight:bold;vertical-align:top;">wsgi_multithread</td><td style="vertical-align:top;">:</td><td><div>True</div></td></tr><tr><td style="font-weight:bold;vertical-align:top;">wsgi_run_once</td><td style="vertical-align:top;">:</td><td><div>False</div></td></tr><tr><td style="font-weight:bold;vertical-align:top;">wsgi_url_scheme</td><td style="vertical-align:top;">:</td><td><div>http</div></td></tr><tr><td style="font-weight:bold;vertical-align:top;">wsgi_version</td><td style="vertical-align:top;">:</td><td><div><table><tr><td><div>1</div></td></tr><tr><td><div>0</div></td></tr></table></div></td></tr></table></div></td></tr><tr><td style="font-weight:bold;vertical-align:top;">extension</td><td style="vertical-align:top;">:</td><td><div>pdf</div></td></tr><tr><td style="font-weight:bold;vertical-align:top;">folder</td><td style="vertical-align:top;">:</td><td><div>D:\\Work\\web2py_src\\web2py\\applications\\LubemanEX\\</div></td></tr><tr><td style="font-weight:bold;vertical-align:top;">function</td><td style="vertical-align:top;">:</td><td><div>confirmation_pdf</div></td></tr><tr><td style="font-weight:bold;vertical-align:top;">global_settings</td><td style="vertical-align:top;">:</td><td><div><table><tr><td style="font-weight:bold;vertical-align:top;">app_folders</td><td style="vertical-align:top;">:</td><td><div>set([&#x27;D:\\\\Work\\\\web2py_src\\\\web2py\\\\applications\\\\welcome\\\\&#x27;, &#x27;D:\\\\Work\\\\web2py_src\\\\web2py\\\\applications\\\\admin\\\\&#x27;, &#x27;D:\\\\Work\\\\web2py_src\\\\web2py\\\\applications\\\\LubemanEX\\\\&#x27;])</div></td></tr><tr><td style="font-weight:bold;vertical-align:top;">applications_parent</td><td style="vertical-align:top;">:</td><td><div>D:\\Work\\web2py_src\\web2py</div></td></tr><tr><td style="font-weight:bold;vertical-align:top;">cmd_args</td><td style="vertical-align:top;">:</td><td><div><table></table></div></td></tr><tr><td style="font-weight:bold;vertical-align:top;">cmd_options</td><td style="vertical-align:top;">:</td><td><div>&lt;Values at 0x3466aa8: {&#x27;verbose&#x27;: False, &#x27;ip&#x27;: &#x27;127.0.0.1&#x27;, &#x27;debuglevel&#x27;: 30, &#x27;with_scheduler&#x27;: False, &#x27;ips&#x27;: [&#x27;fe80::dc16:4dd0:5307:11b1%11&#x27;, &#x27;192.168.100.1&#x27;, &#x27;fe80::d51d:ec06:d31b:c09b%17&#x27;, &#x27;192.168.1.101&#x27;, &#x27;192.168.228.1&#x27;, &#x27;fe80::84df:60e0:d6ee:70be%18&#x27;, &#x27;192.168.145.1&#x27;, &#x27;fe80::3524:333a:7aa2:b71b%16&#x27;], &#x27;shutdown_timeout&#x27;: 5, &#x27;taskbar&#x27;: False, &#x27;with_coverage&#x27;: False, &#x27;port&#x27;: 8000, &#x27;maxthreads&#x27;: None, &#x27;softcron&#x27;: False, &#x27;server_name&#x27;: &#x27;AKU-PC&#x27;, &#x27;bpython&#x27;: False, &#x27;nogui&#x27;: False, &#x27;pid_filename&#x27;: &#x27;httpserver.pid&#x27;, &#x27;extcron&#x27;: False, &#x27;runcron&#x27;: False, &#x27;run_system_tests&#x27;: False, &#x27;test&#x27;: None, &#x27;folder&#x27;: &#x27;D:\\\\Work\\\\web2py_src\\\\web2py&#x27;, &#x27;config&#x27;: &#x27;&#x27;, &#x27;minthreads&#x27;: None, &#x27;shell&#x27;: None, &#x27;run&#x27;: &#x27;&#x27;, &#x27;log_filename&#x27;: &#x27;httpserver.log&#x27;, &#x27;profiler_dir&#x27;: None, &#x27;args&#x27;: [&#x27;&#x27;], &#x27;socket_timeout&#x27;: 5, &#x27;ssl_ca_certificate&#x27;: None, &#x27;scheduler&#x27;: None, &#x27;interfaces&#x27;: None, &#x27;ssl_private_key&#x27;: &#x27;&#x27;, &#x27;scheduler_groups&#x27;: None, &#x27;password&#x27;: &#x27;&lt;ask&gt;&#x27;, &#x27;request_queue_size&#x27;: 5, &#x27;ssl_certificate&#x27;: &#x27;&#x27;, &#x27;cronjob&#x27;: False, &#x27;numthreads&#x27;: None, &#x27;quiet&#x27;: False, &#x27;import_models&#x27;: False, &#x27;timeout&#x27;: 10, &#x27;plain&#x27;: False, &#x27;nobanner&#x27;: False}&gt;</div></td></tr><tr><td style="font-weight:bold;vertical-align:top;">db_sessions</td><td style="vertical-align:top;">:</td><td><div>set([])</div></td></tr><tr><td style="font-weight:bold;vertical-align:top;">debugging</td><td style="vertical-align:top;">:</td><td><div>True</div></td></tr><tr><td style="font-weight:bold;vertical-align:top;">gluon_parent</td><td style="vertical-align:top;">:</td><td><div>D:\\Work\\web2py_src\\web2py</div></td></tr><tr><td style="font-weight:bold;vertical-align:top;">is_jython</td><td style="vertical-align:top;">:</td><td><div>False</div></td></tr><tr><td style="font-weight:bold;vertical-align:top;">is_pypy</td><td style="vertical-align:top;">:</td><td><div>False</div></td></tr><tr><td style="font-weight:bold;vertical-align:top;">is_source</td><td style="vertical-align:top;">:</td><td><div>True</div></td></tr><tr><td style="font-weight:bold;vertical-align:top;">local_hosts</td><td style="vertical-align:top;">:</td><td><div><table><tr><td><div>fe80::dc16:4dd0:5307:11b1%11</div></td></tr><tr><td><div>192.168.228.1</div></td></tr><tr><td><div>fe80::d51d:ec06:d31b:c09b%17</div></td></tr><tr><td><div>192.168.1.101</div></td></tr><tr><td><div>::ffff:127.0.0.1</div></td></tr><tr><td><div>::1</div></td></tr><tr><td><div>AKU-PC</div></td></tr><tr><td><div>fe80::84df:60e0:d6ee:70be%18</div></td></tr><tr><td><div>192.168.145.1</div></td></tr><tr><td><div>192.168.100.1</div></td></tr><tr><td><div>fe80::3524:333a:7aa2:b71b%16</div></td></tr><tr><td><div>127.0.0.1</div></td></tr></table></div></td></tr><tr><td style="font-weight:bold;vertical-align:top;">web2py_version</td><td style="vertical-align:top;">:</td><td><div>2.8.2-stable+timestamp.2013.11.28.13.54.07</div></td></tr></table></div></td></tr><tr><td style="font-weight:bold;vertical-align:top;">is_https</td><td style="vertical-align:top;">:</td><td><div>False</div></td></tr><tr><td style="font-weight:bold;vertical-align:top;">is_local</td><td style="vertical-align:top;">:</td><td><div>True</div></td></tr><tr><td style="font-weight:bold;vertical-align:top;">is_restful</td><td style="vertical-align:top;">:</td><td><div>False</div></td></tr><tr><td style="font-weight:bold;vertical-align:top;">now</td><td style="vertical-align:top;">:</td><td><div>datetime.datetime(2014, 1, 20, 15, 58, 56, 190000)</div></td></tr><tr><td style="font-weight:bold;vertical-align:top;">raw_args</td><td style="vertical-align:top;">:</td><td><div></div></td></tr><tr><td style="font-weight:bold;vertical-align:top;">raw_extension</td><td style="vertical-align:top;">:</td><td><div>pdf</div></td></tr><tr><td style="font-weight:bold;vertical-align:top;">url</td><td style="vertical-align:top;">:</td><td><div>/LubemanEX/sys/confirmation_pdf.pdf</div></td></tr><tr><td style="font-weight:bold;vertical-align:top;">utcnow</td><td style="vertical-align:top;">:</td><td><div>datetime.datetime(2014, 1, 20, 20, 58, 56, 190000)</div></td></tr><tr><td style="font-weight:bold;vertical-align:top;">uuid</td><td style="vertical-align:top;">:</td><td><div>LubemanEX/127.0.0.1.2014-01-20.15-58-56.c30c4b81-cbe4-4349-bae8-39961970af97</div></td></tr><tr><td style="font-weight:bold;vertical-align:top;">wsgi</td><td style="vertical-align:top;">:</td><td><div>&lt;gluon.main.LazyWSGI object at 0x09722690&gt;</div></td></tr></table></div>'
tRp58
sS'frames'
p59
(lp60
(dp61
S'file'
p62
S'D:\\Work\\web2py_src\\web2py\\gluon\\restricted.py'
p63
sS'dump'
p64
(dp65
S'environment'
p66
S"{'A': <class 'gluon.html.A'>, 'ANY_OF': <class 'gluon.validators.ANY_OF'>, 'Auth': <class 'gluon.tools.Auth'>, 'B': <class 'gluon.html.B'>, 'BEAUTIFY': <class 'gluon.html.BEAUTIFY'>, 'BODY': <class 'gluon.html.BODY'>, 'BR': <class 'gluon.html.BR'>, 'BUTTON': <class 'gluon.html.BUTTON'>, 'CAT': <class 'gluon.html.CAT'>, 'CENTER': <class 'gluon.html.CENTER'>, ...}"
p67
sS'ccode'
p68
S'<code object <module> at 08F8B218, file "D:\\Work...plications\\LubemanEX\\controllers/sys.py", line 1>'
p69
ssS'lnum'
p70
I217
sS'lines'
p71
(dp72
I212
S'    try:'
p73
sI213
S'        if isinstance(code, types.CodeType):'
p74
sI214
S'            ccode = code'
p75
sI215
S'        else:'
p76
sI216
S'            ccode = compile2(code, layer)'
p77
sI217
S'        exec ccode in environment'
p78
sI218
S'    except HTTP:'
p79
sI219
S'        raise'
p80
sI220
S'    except RestrictedError:'
p81
sI221
S'        # do not encapsulate (obfuscate) the original RestrictedError'
p82
ssS'call'
p83
S"(code='import datetime\\n\\n@auth.requires_login()\\ndef comp...esponse._vars=response._caller(confirmation_pdf)\\n', environment={'A': <class 'gluon.html.A'>, 'ANY_OF': <class 'gluon.validators.ANY_OF'>, 'Auth': <class 'gluon.tools.Auth'>, 'B': <class 'gluon.html.B'>, 'BEAUTIFY': <class 'gluon.html.BEAUTIFY'>, 'BODY': <class 'gluon.html.BODY'>, 'BR': <class 'gluon.html.BR'>, 'BUTTON': <class 'gluon.html.BUTTON'>, 'CAT': <class 'gluon.html.CAT'>, 'CENTER': <class 'gluon.html.CENTER'>, ...}, layer=r'D:\\Work\\web2py_src\\web2py\\applications\\LubemanEX\\controllers/sys.py')"
p84
sS'func'
p85
S'restricted'
p86
sa(dp87
g62
S'D:\\Work\\web2py_src\\web2py\\applications\\LubemanEX\\controllers\\sys.py'
p88
sg64
(dp89
sg70
I578
sg71
(dp90
I576
S'from reportlab.platypus.tables import Table, TableStyle'
p91
sI567
S'    return doc.render()'
p92
sI568
S''
sI569
S'import cStringIO'
p93
sI570
S''
sI571
S'from reportlab.platypus.doctemplate import SimpleDocTemplate'
p94
sI572
S'from reportlab.platypus import Paragraph, Spacer'
p95
sI573
S'from reportlab.lib.styles import getSampleStyleSheet'
p96
sI574
S'from reportlab.lib.units import inch'
p97
sI575
S'from reportlab.platypus.flowables import Image'
p98
ssg83
S'()'
p99
sg85
S'<module>'
p100
sa(dp101
g62
S'D:\\Work\\web2py_src\\web2py\\gluon\\globals.py'
p102
sg64
(dp103
S'self'
p104
S'undefined'
p105
sS'f'
S'<function confirmation_pdf>'
p106
ssg70
I372
sg71
(dp107
I367
S'        self.menu = []             # used by the default view layout'
p108
sI368
S'        self.files = []            # used by web2py_ajax.html'
p109
sI369
S'        self.generic_patterns = []  # patterns to allow generic views'
p110
sI370
S"        self.delimiters = ('{{', '}}')"
p111
sI371
S'        self._vars = None'
p112
sI372
S'        self._caller = lambda f: f()'
p113
sI373
S'        self._view_environment = None'
p114
sI374
S'        self._custom_commit = None'
p115
sI375
S'        self._custom_rollback = None'
p116
sI376
S''
ssg83
S'(f=<function confirmation_pdf>)'
p117
sg85
S'<lambda>'
p118
sa(dp119
g62
S'D:\\Work\\web2py_src\\web2py\\applications\\LubemanEX\\controllers\\sys.py'
p120
sg64
(dp121
S'global db'
p122
S'<DAL uri="sqlite://storage.sqlite">'
p123
sS'r'
g105
sS'db.infra'
p124
g105
ssg70
I474
sg71
(dp125
I469
S''
sI470
S'    #data = db(db.tempo).select()'
p126
sI471
S'    #    for r in db(db.tempo).select():'
p127
sI472
S'    #    text += r.name_id + " " + r.kv + " " + r.fecha + " " + r.hora + " " + r.tecnico  + "\\n"'
p128
sI473
S'    #aku_row = db(db.infra.name_sample==1001).select()'
p129
sI474
S'    for r in db(db.infra.name_sample==1001).select():'
p130
sI475
S'        textwater = r.water'
p131
sI476
S'        textoxi = r.oxi'
p132
sI477
S'        textsoot = r.sooth'
p133
sI478
S'        textsulfa = r.sulfa'
p134
ssg83
S'()'
p135
sg85
S'confirmation_pdf'
p136
sa(dp137
g62
S'D:\\Work\\web2py_src\\web2py\\gluon\\dal.py'
p138
sg64
(dp139
S'self'
p140
S'<DAL uri="sqlite://storage.sqlite">'
p141
sS'global ogetattr'
p142
S"<slot wrapper '__getattribute__' of 'object' objects>"
p143
sS'key'
p144
S"'infra'"
p145
ssg70
I8245
sg71
(dp146
I8240
S'    def __getattr__(self, key):'
p147
sI8241
S"        if ogetattr(self,'_lazy_tables') and \\"
p148
sI8242
S"                key in ogetattr(self,'_LAZY_TABLES'):"
p149
sI8243
S'            tablename, fields, args = self._LAZY_TABLES.pop(key)'
p150
sI8244
S'            return self.lazy_define_table(tablename,*fields,**args)'
p151
sI8245
S'        return ogetattr(self, key)'
p152
sI8246
S''
sI8247
S'    def __setitem__(self, key, value):'
p153
sI8248
S'        osetattr(self, str(key), value)'
p154
sI8249
S''
ssg83
S'(self=<DAL uri="sqlite://storage.sqlite">, key=\'infra\')'
p155
sg85
S'__getattr__'
p156
sasS'pyver'
p157
S'Python 2.7.6: C:\\Python27\\python.exe (prefix: C:\\Python27)'
p158
sS'session'
p159
g57
(S's\x1a\x00\x00\x00<div><table></table></div>'
tRp160
sS'etype'
p161
S"<type 'exceptions.AttributeError'>"
p162
sS'date'
p163
S'Mon Jan 20 15:58:56 2014'
p164
sS'response'
p165
g57
(S's\x882\x00\x00<div><table><tr><td style="font-weight:bold;vertical-align:top;">body</td><td style="vertical-align:top;">:</td><td><div>&lt;cStringIO.StringO object at 0x09722AC0&gt;</div></td></tr><tr><td style="font-weight:bold;vertical-align:top;">cookies</td><td style="vertical-align:top;">:</td><td><div><table><tr><td style="font-weight:bold;vertical-align:top;">session_id_lubemanex</td><td style="vertical-align:top;">:</td><td><div>127.0.0.1-ea9129e5-05be-4251-bb81-bbda688a4e2e<table><tr><td style="font-weight:bold;vertical-align:top;">comment</td><td style="vertical-align:top;">:</td><td><div></div></td></tr><tr><td style="font-weight:bold;vertical-align:top;">domain</td><td style="vertical-align:top;">:</td><td><div></div></td></tr><tr><td style="font-weight:bold;vertical-align:top;">expires</td><td style="vertical-align:top;">:</td><td><div></div></td></tr><tr><td style="font-weight:bold;vertical-align:top;">httponly</td><td style="vertical-align:top;">:</td><td><div></div></td></tr><tr><td style="font-weight:bold;vertical-align:top;">max-age</td><td style="vertical-align:top;">:</td><td><div></div></td></tr><tr><td style="font-weight:bold;vertical-align:top;">path</td><td style="vertical-align:top;">:</td><td><div>/</div></td></tr><tr><td style="font-weight:bold;vertical-align:top;">secure</td><td style="vertical-align:top;">:</td><td><div></div></td></tr><tr><td style="font-weight:bold;vertical-align:top;">version</td><td style="vertical-align:top;">:</td><td><div></div></td></tr></table></div></td></tr></table></div></td></tr><tr><td style="font-weight:bold;vertical-align:top;">delimiters</td><td style="vertical-align:top;">:</td><td><div><table><tr><td><div>{{</div></td></tr><tr><td><div>}}</div></td></tr></table></div></td></tr><tr><td style="font-weight:bold;vertical-align:top;">files</td><td style="vertical-align:top;">:</td><td><div><table></table></div></td></tr><tr><td style="font-weight:bold;vertical-align:top;">flash</td><td style="vertical-align:top;">:</td><td><div></div></td></tr><tr><td style="font-weight:bold;vertical-align:top;">generic_patterns</td><td style="vertical-align:top;">:</td><td><div><table><tr><td><div>*</div></td></tr></table></div></td></tr><tr><td style="font-weight:bold;vertical-align:top;">google_analytics_id</td><td style="vertical-align:top;">:</td><td><div>None</div></td></tr><tr><td style="font-weight:bold;vertical-align:top;">headers</td><td style="vertical-align:top;">:</td><td><div><table><tr><td style="font-weight:bold;vertical-align:top;">X-Powered-By</td><td style="vertical-align:top;">:</td><td><div>web2py</div></td></tr></table></div></td></tr><tr><td style="font-weight:bold;vertical-align:top;">logo</td><td style="vertical-align:top;">:</td><td><div><a class="brand" data-w2p_disable_with="default" href="http://www.web2py.com/"><b>web<span>2</span>py</b>&trade;&nbsp;</a></div></td></tr><tr><td style="font-weight:bold;vertical-align:top;">menu</td><td style="vertical-align:top;">:</td><td><div><table><tr><td><div><table><tr><td><div>Home</div></td></tr><tr><td><div>False</div></td></tr><tr><td><div>/LubemanEX/default/index.pdf</div></td></tr><tr><td><div><table></table></div></td></tr></table></div></td></tr><tr><td><div><table><tr><td><div><span class="highlighted">web2py</span></div></td></tr><tr><td><div>False</div></td></tr><tr><td><div>http://web2py.com</div></td></tr><tr><td><div><table><tr><td><div><table><tr><td><div>My Sites</div></td></tr><tr><td><div>False</div></td></tr><tr><td><div>/admin/default/site.pdf</div></td></tr></table></div></td></tr><tr><td><div><table><tr><td><div>This App</div></td></tr><tr><td><div>False</div></td></tr><tr><td><div>/admin/default/design.pdf/LubemanEX</div></td></tr><tr><td><div>[(&lt;lazyT &#x27;Controller&#x27;&gt;, False, &#x27;/admin/default/edit.pdf/LubemanEX/controllers/sys.py&#x27;), (&lt;lazyT &#x27;View&#x27;&gt;, False, &#x27;/admin/default/edit.pdf/LubemanEX/views/sys/confirmation_pdf.pdf&#x27;), (&lt;lazyT &#x27;Layout&#x27;&gt;, False, &#x27;/admin/default/edit.pdf/LubemanEX/views/layout.html&#x27;), (&lt;lazyT &#x27;Stylesheet&#x27;&gt;, False, &#x27;/admin/default/edit.pdf/LubemanEX/static/css/web2py.css&#x27;), (&lt;lazyT &#x27;DB Model&#x27;&gt;, False, &#x27;/admin/default/edit.pdf/LubemanEX/models/db.py&#x27;), (&lt;lazyT &#x27;Menu Model&#x27;&gt;, False, &#x27;/admin/default/edit.pdf/LubemanEX/models/menu.py&#x27;), (&lt;lazyT &#x27;Database&#x27;&gt;, False, &#x27;/LubemanEX/appadmin/index.pdf&#x27;), (&lt;lazyT &#x27;Errors&#x27;&gt;, False, &#x27;/admin/default/errors.pdf/LubemanEX&#x27;), (&lt;lazyT &#x27;About&#x27;&gt;, False, &#x27;/admin/default/about.pdf/LubemanEX&#x27;)]</div></td></tr></table></div></td></tr><tr><td><div><table><tr><td><div>web2py.com</div></td></tr><tr><td><div>False</div></td></tr><tr><td><div>http://www.web2py.com</div></td></tr><tr><td><div>[(&lt;lazyT &#x27;Download&#x27;&gt;, False, &#x27;http://www.web2py.com/examples/default/download&#x27;), (&lt;lazyT &#x27;Support&#x27;&gt;, False, &#x27;http://www.web2py.com/examples/default/support&#x27;), (&lt;lazyT &#x27;Demo&#x27;&gt;, False, &#x27;http://web2py.com/demo_admin&#x27;), (&lt;lazyT &#x27;Quick Examples&#x27;&gt;, False, &#x27;http://web2py.com/examples/default/examples&#x27;), (&lt;lazyT &#x27;FAQ&#x27;&gt;, False, &#x27;http://web2py.com/AlterEgo&#x27;), (&lt;lazyT &#x27;Videos&#x27;&gt;, False, &#x27;http://www.web2py.com/examples/default/videos/&#x27;), (&lt;lazyT &#x27;Free Applications&#x27;&gt;, False, &#x27;http://web2py.com/appliances&#x27;), (&lt;lazyT &#x27;Plugins&#x27;&gt;, False, &#x27;http://web2py.com/plugins&#x27;), (&lt;lazyT &#x27;Layouts&#x27;&gt;, False, &#x27;http://web2py.com/layouts&#x27;), (&lt;lazyT &#x27;Recipes&#x27;&gt;, False, &#x27;http://web2pyslices.com/&#x27;), (&lt;lazyT &#x27;Semantic&#x27;&gt;, False, &#x27;http://web2py.com/semantic&#x27;)]</div></td></tr></table></div></td></tr><tr><td><div><table><tr><td><div>Documentation</div></td></tr><tr><td><div>False</div></td></tr><tr><td><div>http://www.web2py.com/book</div></td></tr><tr><td><div>[(&lt;lazyT &#x27;Preface&#x27;&gt;, False, &#x27;http://www.web2py.com/book/default/chapter/00&#x27;), (&lt;lazyT &#x27;Introduction&#x27;&gt;, False, &#x27;http://www.web2py.com/book/default/chapter/01&#x27;), (&lt;lazyT &#x27;Python&#x27;&gt;, False, &#x27;http://www.web2py.com/book/default/chapter/02&#x27;), (&lt;lazyT &#x27;Overview&#x27;&gt;, False, &#x27;http://www.web2py.com/book/default/chapter/03&#x27;), (&lt;lazyT &#x27;The Core&#x27;&gt;, False, &#x27;http://www.web2py.com/book/default/chapter/04&#x27;), (&lt;lazyT &#x27;The Views&#x27;&gt;, False, &#x27;http://www.web2py.com/book/default/chapter/05&#x27;), (&lt;lazyT &#x27;Database&#x27;&gt;, False, &#x27;http://www.web2py.com/book/default/chapter/06&#x27;), (&lt;lazyT &#x27;Forms and Validators&#x27;&gt;, False, &#x27;http://www.web2py.com/book/default/chapter/07&#x27;), (&lt;lazyT &#x27;Email and SMS&#x27;&gt;, False, &#x27;http://www.web2py.com/book/default/chapter/08&#x27;), (&lt;lazyT &#x27;Access Control&#x27;&gt;, False, &#x27;http://www.web2py.com/book/default/chapter/09&#x27;), (&lt;lazyT &#x27;Services&#x27;&gt;, False, &#x27;http://www.web2py.com/book/default/chapter/10&#x27;), (&lt;lazyT &#x27;Ajax Recipes&#x27;&gt;, False, &#x27;http://www.web2py.com/book/default/chapter/11&#x27;), (&lt;lazyT &#x27;Components and Plugins&#x27;&gt;, False, &#x27;http://www.web2py.com/book/default/chapter/12&#x27;), (&lt;lazyT &#x27;Deployment Recipes&#x27;&gt;, False, &#x27;http://www.web2py.com/book/default/chapter/13&#x27;), (&lt;lazyT &#x27;Other Recipes&#x27;&gt;, False, &#x27;http://www.web2py.com/book/default/chapter/14&#x27;), (&lt;lazyT &#x27;Buy this book&#x27;&gt;, False, &#x27;http://stores.lulu.com/web2py&#x27;)]</div></td></tr></table></div></td></tr><tr><td><div><table><tr><td><div>Community</div></td></tr><tr><td><div>False</div></td></tr><tr><td><div>None</div></td></tr><tr><td><div>[(&lt;lazyT &#x27;Groups&#x27;&gt;, False, &#x27;http://www.web2py.com/examples/default/usergroups&#x27;), (&lt;lazyT &#x27;Twitter&#x27;&gt;, False, &#x27;http://twitter.com/web2py&#x27;), (&lt;lazyT &#x27;Live Chat&#x27;&gt;, False, &#x27;http://webchat.freenode.net/?channels=web2py&#x27;)]</div></td></tr></table></div></td></tr><tr><td><div><table><tr><td><div>Plugins</div></td></tr><tr><td><div>False</div></td></tr><tr><td><div>None</div></td></tr><tr><td><div>[(&#x27;plugin_wiki&#x27;, False, &#x27;http://web2py.com/examples/default/download&#x27;), (&lt;lazyT &#x27;Other Plugins&#x27;&gt;, False, &#x27;http://web2py.com/plugins&#x27;), (&lt;lazyT &#x27;Layout Plugins&#x27;&gt;, False, &#x27;http://web2py.com/layouts&#x27;)]</div></td></tr></table></div></td></tr></table></div></td></tr></table></div></td></tr></table></div></td></tr><tr><td style="font-weight:bold;vertical-align:top;">meta</td><td style="vertical-align:top;">:</td><td><div><table><tr><td style="font-weight:bold;vertical-align:top;">author</td><td style="vertical-align:top;">:</td><td><div>Your Name &lt;you@example.com&gt;</div></td></tr><tr><td style="font-weight:bold;vertical-align:top;">description</td><td style="vertical-align:top;">:</td><td><div>a cool new app</div></td></tr><tr><td style="font-weight:bold;vertical-align:top;">generator</td><td style="vertical-align:top;">:</td><td><div>Web2py Web Framework</div></td></tr><tr><td style="font-weight:bold;vertical-align:top;">keywords</td><td style="vertical-align:top;">:</td><td><div>web2py, python, framework</div></td></tr></table></div></td></tr><tr><td style="font-weight:bold;vertical-align:top;">models_to_run</td><td style="vertical-align:top;">:</td><td><div><table><tr><td><div>^\\w+\\.py$</div></td></tr><tr><td><div>^sys/\\w+\\.py$</div></td></tr><tr><td><div>^sys/confirmation_pdf/\\w+\\.py$</div></td></tr></table></div></td></tr><tr><td style="font-weight:bold;vertical-align:top;">postprocessing</td><td style="vertical-align:top;">:</td><td><div><table></table></div></td></tr><tr><td style="font-weight:bold;vertical-align:top;">session_client</td><td style="vertical-align:top;">:</td><td><div>127.0.0.1</div></td></tr><tr><td style="font-weight:bold;vertical-align:top;">session_cookie_compression_level</td><td style="vertical-align:top;">:</td><td><div>None</div></td></tr><tr><td style="font-weight:bold;vertical-align:top;">session_cookie_expires</td><td style="vertical-align:top;">:</td><td><div>None</div></td></tr><tr><td style="font-weight:bold;vertical-align:top;">session_cookie_key</td><td style="vertical-align:top;">:</td><td><div>None</div></td></tr><tr><td style="font-weight:bold;vertical-align:top;">session_data_name</td><td style="vertical-align:top;">:</td><td><div>session_data_lubemanex</div></td></tr><tr><td style="font-weight:bold;vertical-align:top;">session_file</td><td style="vertical-align:top;">:</td><td><div>&lt;open file &#x27;D:\\\\Work\\\\web2py_src\\\\web2py\\\\applications\\\\LubemanEX\\\\sessions\\\\127.0.0.1-ea9129e5-05be-4251-bb81-bbda688a4e2e&#x27;, mode &#x27;rb+&#x27; at 0x08FF9020&gt;</div></td></tr><tr><td style="font-weight:bold;vertical-align:top;">session_filename</td><td style="vertical-align:top;">:</td><td><div>D:\\Work\\web2py_src\\web2py\\applications\\LubemanEX\\sessions\\127.0.0.1-ea9129e5-05be-4251-bb81-bbda688a4e2e</div></td></tr><tr><td style="font-weight:bold;vertical-align:top;">session_hash</td><td style="vertical-align:top;">:</td><td><div>0d25fea5adcdb7f94b5b5073f06009d4</div></td></tr><tr><td style="font-weight:bold;vertical-align:top;">session_id</td><td style="vertical-align:top;">:</td><td><div>127.0.0.1-ea9129e5-05be-4251-bb81-bbda688a4e2e</div></td></tr><tr><td style="font-weight:bold;vertical-align:top;">session_id_name</td><td style="vertical-align:top;">:</td><td><div>session_id_lubemanex</div></td></tr><tr><td style="font-weight:bold;vertical-align:top;">session_locked</td><td style="vertical-align:top;">:</td><td><div>True</div></td></tr><tr><td style="font-weight:bold;vertical-align:top;">session_masterapp</td><td style="vertical-align:top;">:</td><td><div>LubemanEX</div></td></tr><tr><td style="font-weight:bold;vertical-align:top;">session_new</td><td style="vertical-align:top;">:</td><td><div>False</div></td></tr><tr><td style="font-weight:bold;vertical-align:top;">session_storage_type</td><td style="vertical-align:top;">:</td><td><div>file</div></td></tr><tr><td style="font-weight:bold;vertical-align:top;">status</td><td style="vertical-align:top;">:</td><td><div>200</div></td></tr><tr><td style="font-weight:bold;vertical-align:top;">subtitle</td><td style="vertical-align:top;">:</td><td><div></div></td></tr><tr><td style="font-weight:bold;vertical-align:top;">title</td><td style="vertical-align:top;">:</td><td><div>Lubemanex</div></td></tr><tr><td style="font-weight:bold;vertical-align:top;">view</td><td style="vertical-align:top;">:</td><td><div>sys/confirmation_pdf.pdf</div></td></tr></table></div>'
tRp166
sS'locals'
p167
(dp168
S'self'
p169
S'<DAL uri="sqlite://storage.sqlite">'
p170
sS'key'
p171
S"'infra'"
p172
sssS'traceback'
p173
S'Traceback (most recent call last):\n  File "D:\\Work\\web2py_src\\web2py\\gluon\\restricted.py", line 217, in restricted\n    exec ccode in environment\n  File "D:\\Work\\web2py_src\\web2py\\applications\\LubemanEX\\controllers/sys.py", line 578, in <module>\n  File "D:\\Work\\web2py_src\\web2py\\gluon\\globals.py", line 372, in <lambda>\n    self._caller = lambda f: f()\n  File "D:\\Work\\web2py_src\\web2py\\applications\\LubemanEX\\controllers/sys.py", line 474, in confirmation_pdf\n    for r in db(db.infra.name_sample==1001).select():\n  File "D:\\Work\\web2py_src\\web2py\\gluon\\dal.py", line 8245, in __getattr__\n    return ogetattr(self, key)\nAttributeError: \'DAL\' object has no attribute \'infra\'\n'
p174
s.